((lp0
S'lspm2302'
p1
aS'lspm1186'
p2
aS'lspm1177'
p3
aS'lspm1190'
p4
aS'lspm1238'
p5
aS'lspm3731'
p6
aS'lspm1271'
p7
aS'lspm3674'
p8
aS'lspm2305'
p9
aS'lspm1395'
p10
aS'lspm3932'
p11
aS'lspm2388'
p12
aS'lspm3965'
p13
aS'lspm4053'
p14
aS'lspm1652'
p15
aS'lspm2571'
p16
aS'lspm1803'
p17
aS'lspm1868'
p18
aS'lspm1808'
p19
aS'lspm374'
p20
aS'lspm408'
p21
aS'lspm1871'
p22
aS'lspm399'
p23
aS'lspm384'
p24
aS'lspm3009'
p25
aS'lspm3046'
p26
aS'lspm1963'
p27
aS'lspm588'
p28
aS'lspm613'
p29
aS'lspm3624'
p30
aS'lspm1370'
p31
aS'lspm1403lspm3833'
p32
aS'lspm3848'
p33
aS'lspm1421'
p34
aS'lspm1149'
p35
aS'lspm1325'
p36
aS'lspm1339'
p37
aS'lspm1397'
p38
aS'lspm1441'
p39
aS'lspm4057'
p40
aS'lspm2304'
p41
aS'lspm4042'
p42
aS'lspm26'
p43
aS'lspm1651'
p44
aS'lspm4055'
p45
aS'lspm2682'
p46
aS'lspm1792'
p47
aS'lspm1798'
p48
aS'lspm1865'
p49
aS'lspm1887'
p50
aS'lspm599'
p51
aS'lspm608'
p52
aS'lspm3014'
p53
aS'lspm1889'
p54
aS'lspm1959'
p55
aS'lspm3021'
p56
aS'lspm696'
p57
aS'lspm1085'
p58
aS'lspm3404'
p59
aS'lspm2202'
p60
aS'lspm3468'
p61
aS'lspm2503'
p62
aS'lspm3431'
p63
aS'lspm3454'
p64
aS'lspm2500'
p65
aS'lspm1697'
p66
aS'lspm1676'
p67
aS'lspm41'
p68
aS'lspm51'
p69
aS'lspm1699'
p70
aS'lspm236'
p71
aS'lspm2965'
p72
aS'lspm2980'
p73
aS'lspm1961'
p74
aS'lspm3099'
p75
aS'lspm3517'
p76
aS'lspm3475'
p77
aS'lspm2479'
p78
aS'lspm2491'
p79
aS'lspm2494'
p80
aS'lspm37'
p81
aS'lspm1293'
p82
aS'lspm2459'
p83
aS'lspm1688'
p84
aS'lspm1692'
p85
aS'lspm3100'
p86
aS'lspm671'
p87
aS'lspm3134'
p88
aS'lspm3106'
p89
aS'lspm2003'
p90
aS'lspm1110'
p91
aS'lspm2230'
p92
aS'lspm1051'
p93
aS'lspm2469'
p94
aS'lspm1693'
p95
aS'lspm1691'
p96
aS'lspm2493'
p97
aS'lspm31'
p98
aS'lspm2486'
p99
aS'lspm2482'
p100
aS'lspm2001'
p101
aS'lspm3121'
p102
aS'lspm3064'
p103
aS'lspm1990'
p104
aS'lspm1093lspm3524lspm3523'
p105
aS'lspm2496'
p106
aS'lspm2504'
p107
aS'lspm3428'
p108
aS'lspm3443'
p109
aS'lspm1030'
p110
aS'lspm2502'
p111
aS'lspm57'
p112
aS'lspm2492'
p113
aS'lspm2499'
p114
aS'lspm2488'
p115
aS'lspm531'
p116
aS'lspm3020'
p117
aS'lspm3049'
p118
aS'lspm3078'
p119
aS'lspm1084'
p120
aS'lspm33'
p121
aS'lspm39'
p122
aS'lspm47'
p123
aS'lspm2489'
p124
aS'lspm2481'
p125
aS'lspm1687'
p126
aS'lspm2478'
p127
aS'lspm20lspm21lspm1683'
p128
aS'lspm1690'
p129
aS'lspm19'
p130
aS'lspm693'
p131
aS'lspm2017'
p132
aS'lspm3113'
p133
aS'lspm4068'
p134
aS'lspm2441'
p135
aS'lspm1108lspm2243lspm2242'
p136
aS'lspm2237'
p137
aS'lspm3496'
p138
aS'lspm3051'
p139
aS'lspm3070'
p140
aS'lspm3485'
p141
aS'lspm725'
p142
aS'lspm3143'
p143
aS'lspm3075'
p144
aS'lspm3086'
p145
aS'lspm3474'
p146
aS'lspm3112'
p147
aS'lspm624'
p148
aS'lspm2018'
p149
aS'lspm3182'
p150
aS'lspm669'
p151
aS'lspm1194'
p152
aS'lspm1554'
p153
aS'lspm276'
p154
aS'lspm3460'
p155
aS'lspm2031'
p156
aS'lspm3538'
p157
aS'lspm2025'
p158
aS'lspm2044'
p159
aS'lspm2238'
p160
aS'lspm2042'
p161
aS'lspm1071'
p162
aS'lspm2359'
p163
aS'lspm3658'
p164
aS'lspm2013'
p165
aS'lspm3516lspm3513'
p166
aS'lspm3105'
p167
aS'lspm2015'
p168
aS'lspm2035'
p169
aS'lspm3073'
p170
aS'lspm2231'
p171
aS'lspm3090'
p172
aS'lspm2451lspm2448'
p173
aS'lspm1114'
p174
aS'lspm3472'
p175
aS'lspm1776'
p176
aS'lspm315'
p177
aS'lspm416'
p178
aS'lspm3696'
p179
aS'lspm146'
p180
aS'lspm1649'
p181
aS'lspm2505'
p182
aS'lspm2603'
p183
aS'lspm2229'
p184
aS'lspm2531'
p185
aS'lspm1269'
p186
aS'lspm3822'
p187
aS'lspm3966'
p188
aS'lspm2234'
p189
aS'lspm3413'
p190
aS'lspm3466'
p191
aS'lspm3904'
p192
aS'lspm3672'
p193
aS'lspm2320'
p194
aS'lspm1329'
p195
aS'lspm3465'
p196
aS'lspm3464'
p197
aS'lspm1243'
p198
aS'lspm3002'
p199
aS'lspm2771'
p200
aS'lspm639'
p201
aS'lspm646'
p202
aS'lspm2312'
p203
aS'lspm1296'
p204
aS'lspm1322lspm2331'
p205
aS'lspm1463'
p206
aS'lspm2513'
p207
aS'lspm2563'
p208
aS'lspm2221'
p209
aS'lspm3503'
p210
aS'lspm3109'
p211
aS'lspm1984'
p212
aS'lspm1205'
p213
aS'lspm3463'
p214
aS'lspm3479'
p215
aS'lspm1139'
p216
aS'lspm2509'
p217
aS'lspm1731'
p218
aS'lspm1977'
p219
aS'lspm3682'
p220
aS'lspm1320'
p221
aS'lspm80'
p222
aS'lspm3471'
p223
aS'lspm2225'
p224
aS'lspm1173'
p225
aS'lspm1966'
p226
aS'lspm2000'
p227
aS'lspm2010'
p228
aS'lspm1594'
p229
aS'lspm2412'
p230
aS'lspm1272'
p231
aS'lspm2709'
p232
aS'lspm1268'
p233
aS'lspm2555'
p234
aS'lspm3810'
p235
aS'lspm4010'
p236
aS'lspm1419'
p237
aS'lspm3937'
p238
aS'lspm3505'
p239
aS'lspm2227'
p240
aS'lspm3120'
p241
aS'lspm1343'
p242
aS'lspm2515'
p243
aS'lspm2737'
p244
aS'lspm2371'
p245
aS'lspm1529'
p246
aS'lspm1079'
p247
aS'lspm2255'
p248
aS'lspm3144'
p249
aS'lspm179'
p250
aS'lspm571'
p251
aS'lspm2418'
p252
aS'lspm1965'
p253
aS'lspm1974'
p254
aS'lspm2028'
p255
aS'lspm2262'
p256
aS'lspm2533'
p257
aS'lspm2645'
p258
aS'lspm1848'
p259
aS'lspm2343'
p260
aS'lspm2382'
p261
aS'lspm1436'
p262
aS'lspm1566'
p263
aS'lspm1995'
p264
aS'lspm730'
p265
aS'lspm1998'
p266
aS'lspm534'
p267
aS'lspm3642'
p268
aS'lspm2016'
p269
aS'lspm4123'
p270
aS'lspm2818'
p271
aS'lspm421'
p272
aS'lspm2021'
p273
aS'lspm477'
p274
aS'lspm481'
p275
aS'lspm614'
p276
aS'lspm524'
p277
aS'lspm2770'
p278
aS'lspm420'
p279
aS'lspm1979'
p280
aS'lspm453'
p281
aS'lspm2034'
p282
aS'lspm2070'
p283
aS'lspm2057'
p284
aS'lspm3088'
p285
aS'lspm3155'
p286
aS'lspm658'
p287
aS'lspm3160'
p288
aS'lspm2047'
p289
aS'lspm2087'
p290
aS'lspm3280'
p291
aS'lspm734'
p292
aS'lspm4102'
p293
aS'lspm3148'
p294
aS'lspm1825'
p295
aS'lspm758'
p296
aS'lspm1786'
p297
aS'lspm1802'
p298
aS'lspm3171'
p299
aS'lspm3219'
p300
aS'lspm3154'
p301
aS'lspm282'
p302
aS'lspm2064'
p303
aS'lspm3169'
p304
aS'lspm3140'
p305
aS'lspm2075'
p306
aS'lspm2301'
p307
aS'lspm2006'
p308
aS'lspm2265'
p309
aS'lspm642'
p310
aS'lspm3068'
p311
aS'lspm3200'
p312
aS'lspm2043'
p313
aS'lspm836'
p314
aS'lspm1983'
p315
aS'lspm747'
p316
aS'lspm2046'
p317
aS'lspm3133lspm3132'
p318
aS'lspm2068'
p319
aS'lspm2027'
p320
aS'lspm3205'
p321
aS'lspm2009'
p322
aS'lspm3131'
p323
aS'lspm2045'
p324
aS'lspm3141'
p325
aS'lspm3198'
p326
aS'lspm2022'
p327
aS'lspm2079'
p328
aS'lspm2056'
p329
aS'lspm768'
p330
aS'lspm3170'
p331
aS'lspm2076'
p332
aS'lspm3209'
p333
aS'lspm3285'
p334
aS'lspm3562'
p335
aS'lspm2051'
p336
aS'lspm3191'
p337
aS'lspm843'
p338
aS'lspm738'
p339
aS'lspm3184'
p340
aS'lspm3193'
p341
aS'lspm2065'
p342
aS'lspm2093'
p343
aS'lspm743'
p344
aS'lspm2398'
p345
aS'lspm3912'
p346
aS'lspm822'
p347
aS'lspm780'
p348
aS'lspm750'
p349
aS'lspm1337'
p350
aS'lspm3700'
p351
aS'lspm1482'
p352
aS'lspm3383'
p353
aS'lspm3587'
p354
aS'lspm2256'
p355
aS'lspm1150'
p356
aS'lspm2090'
p357
aS'lspm1712'
p358
aS'lspm2311'
p359
aS'lspm3541'
p360
aS'lspm1748'
p361
aS'lspm2463'
p362
aS'lspm3578'
p363
aS'lspm2394'
p364
aS'lspm1382'
p365
aS'lspm3589'
p366
aS'lspm3631'
p367
aS'lspm3584'
p368
aS'lspm2403'
p369
aS'lspm3561'
p370
aS'lspm3599'
p371
aS'lspm3854'
p372
aS'lspm3614'
p373
aS'lspm1885'
p374
aS'lspm3618lspm3620'
p375
aS'lspm4110'
p376
aS'lspm536'
p377
aS'lspm2910'
p378
aS'lspm3052'
p379
aS'lspm796'
p380
aS'lspm2058'
p381
aS'lspm180'
p382
aS'lspm253'
p383
aS'lspm300'
p384
aS'lspm3267'
p385
aS'lspm2088'
p386
aS'lspm1249'
p387
aS'lspm1994lspm3097'
p388
aS'lspm2117'
p389
aS'lspm3276'
p390
aS'lspm855'
p391
aS'lspm3623'
p392
aS'lspm2138'
p393
aS'lspm833lspm3274'
p394
aS'lspm2168'
p395
aS'lspm2119'
p396
aS'lspm2128'
p397
aS'lspm2140'
p398
aS'lspm2177'
p399
aS'lspm3344'
p400
aS'lspm3150'
p401
aS'lspm3369'
p402
aS'lspm3210'
p403
aS'lspm2086'
p404
aS'lspm3240'
p405
aS'lspm913'
p406
aS'lspm834'
p407
aS'lspm2085'
p408
aS'lspm1285'
p409
aS'lspm3304'
p410
aS'lspm1290'
p411
aS'lspm847'
p412
aS'lspm2151'
p413
aS'lspm2145'
p414
aS'lspm897'
p415
aS'lspm983'
p416
aS'lspm3397'
p417
aS'lspm2148'
p418
aS'lspm3648'
p419
aS'lspm3784'
p420
aS'lspm3348'
p421
aS'lspm2191'
p422
aS'lspm2152'
p423
aS'lspm3685'
p424
aS'lspm2164'
p425
aS'lspm103'
p426
aS'lspm3381'
p427
aS'lspm1024'
p428
aS'lspm3337'
p429
aS'lspm2193'
p430
aS'lspm2186'
p431
aS'lspm1021'
p432
aS'lspm933'
p433
aS'lspm1666'
p434
aS'lspm2407'
p435
aS'lspm1405'
p436
aS'lspm1384'
p437
aS'lspm1456'
p438
aS'lspm3399'
p439
aS'lspm976'
p440
aS'lspm3433'
p441
aS'lspm3409'
p442
aS'lspm1049'
p443
aS'lspm2432'
p444
aS'lspm3863'
p445
aS'lspm1064'
p446
aS'lspm2413'
p447
aS'lspm3484'
p448
aS'lspm3895'
p449
aS'lspm96'
p450
aS'lspm3856'
p451
aS'lspm3787'
p452
aS'lspm1121'
p453
aS'lspm2539'
p454
aS'lspm3514'
p455
aS'lspm2264'
p456
aS'lspm4092'
p457
aS'lspm2445'
p458
aS'lspm1140'
p459
aS'lspm3875'
p460
aS'lspm2444'
p461
aS'lspm2409'
p462
aS'lspm2690'
p463
aS'lspm2698'
p464
aS'lspm2155'
p465
aS'lspm2207'
p466
aS'lspm3498'
p467
aS'lspm923'
p468
aS'lspm1880'
p469
aS'lspm2020'
p470
aS'lspm954'
p471
aS'lspm1078lspm1077lspm2232'
p472
aS'lspm165'
p473
aS'lspm2220'
p474
aS'lspm2196'
p475
aS'lspm1946'
p476
aS'lspm999'
p477
aS'lspm1615lspm2433'
p478
aS'lspm1665lspm4124lspm4125'
p479
aS'lspm3968'
p480
aS'lspm3922'
p481
aS'lspm1986'
p482
aS'lspm2308'
p483
aS'lspm3925'
p484
aS'lspm1145'
p485
aS'lspm3944'
p486
aS'lspm1264'
p487
aS'lspm3948'
p488
aS'lspm553'
p489
aS'lspm3535'
p490
aS'lspm2269'
p491
aS'lspm1548'
p492
aS'lspm3959'
p493
aS'lspm3967'
p494
aS'lspm3985'
p495
aS'lspm3924'
p496
aS'lspm4039'
p497
aS'lspm3990'
p498
aS'lspm2438'
p499
aS'lspm4036'
p500
aS'lspm3982'
p501
aS'lspm29'
p502
aS'lspm3613'
p503
aS'lspm4037'
p504
aS'lspm3553'
p505
aS'lspm1284'
p506
aS'lspm4018'
p507
aS'lspm4049'
p508
aS'lspm3567'
p509
aS'lspm4040'
p510
aS'lspm2315'
p511
aS'lspm4001'
p512
aS'lspm1675'
p513
aS'lspm3564'
p514
aS'lspm2428'
p515
aS'lspm2447'
p516
aS'lspm4117'
p517
aS'lspm4045'
p518
aS'lspm2429'
p519
aS'lspm1232'
p520
aS'lspm3777'
p521
aS'lspm2284'
p522
aS'lspm18'
p523
aS'lspm2450'
p524
aS'lspm2506'
p525
aS'lspm2511'
p526
aS'lspm1705'
p527
aS'lspm2507'
p528
aS'lspm2514'
p529
aS'lspm2512'
p530
aS'lspm2966'
p531
aS'lspm1954'
p532
aS'lspm507'
p533
aS'lspm3166'
p534
aS'lspm3178'
p535
aS'lspm3180'
p536
aS'lspm3167'
p537
aS'lspm876'
p538
aS'lspm3512'
p539
aS'lspm1142'
p540
aS'lspm2294'
p541
aS'lspm3686'
p542
aS'lspm3673'
p543
aS'lspm1241'
p544
aS'lspm3701'
p545
aS'lspm3708'
p546
aS'lspm3716'
p547
aS'lspm3622'
p548
aS'lspm2526'
p549
aS'lspm148'
p550
aS'lspm132'
p551
aS'lspm3688lspm1263'
p552
aS'lspm3730'
p553
aS'lspm2355'
p554
aS'lspm2303'
p555
aS'lspm1324'
p556
aS'lspm3690'
p557
aS'lspm3742'
p558
aS'lspm2986'
p559
aS'lspm2671'
p560
aS'lspm2520'
p561
aS'lspm1707'
p562
aS'lspm2552'
p563
aS'lspm2364'
p564
aS'lspm2574'
p565
aS'lspm2347'
p566
aS'lspm2536'
p567
aS'lspm2535'
p568
aS'lspm3758'
p569
aS'lspm2487'
p570
aS'lspm2356'
p571
aS'lspm2548'
p572
aS'lspm2346'
p573
aS'lspm2578'
p574
aS'lspm167'
p575
aS'lspm2557'
p576
aS'lspm3802'
p577
aS'lspm2560'
p578
aS'lspm1721'
p579
aS'lspm2570'
p580
aS'lspm385'
p581
aS'lspm2616'
p582
aS'lspm566'
p583
aS'lspm587'
p584
aS'lspm432'
p585
aS'lspm2902'
p586
aS'lspm2724'
p587
aS'lspm1843'
p588
aS'lspm1877'
p589
aS'lspm1912'
p590
aS'lspm2904'
p591
aS'lspm1892'
p592
aS'lspm3227'
p593
aS'lspm3228'
p594
aS'lspm3218'
p595
aS'lspm2334'
p596
aS'lspm2361'
p597
aS'lspm215'
p598
aS'lspm1761'
p599
aS'lspm2353'
p600
aS'lspm3806'
p601
aS'lspm1720'
p602
aS'lspm569'
p603
aS'lspm1747'
p604
aS'lspm2792'
p605
aS'lspm402'
p606
aS'lspm3832'
p607
aS'lspm3867'
p608
aS'lspm3797'
p609
aS'lspm3931'
p610
aS'lspm1797'
p611
aS'lspm3775'
p612
aS'lspm3902'
p613
aS'lspm1424'
p614
aS'lspm3834'
p615
aS'lspm1411'
p616
aS'lspm3821'
p617
aS'lspm1820'
p618
aS'lspm267lspm2745'
p619
aS'lspm2627'
p620
aS'lspm3844'
p621
aS'lspm1830'
p622
aS'lspm3874'
p623
aS'lspm2374'
p624
aS'lspm254'
p625
aS'lspm3855'
p626
aS'lspm3830'
p627
aS'lspm2707'
p628
aS'lspm2712'
p629
aS'lspm463'
p630
aS'lspm2719'
p631
aS'lspm1845'
p632
aS'lspm449'
p633
aS'lspm287'
p634
aS'lspm2816'
p635
aS'lspm3069'
p636
aS'lspm499'
p637
aS'lspm2794'
p638
aS'lspm2749'
p639
aS'lspm1828'
p640
aS'lspm2785'
p641
aS'lspm1831'
p642
aS'lspm2780'
p643
aS'lspm1838'
p644
aS'lspm1934'
p645
aS'lspm2788'
p646
aS'lspm2799'
p647
aS'lspm2783'
p648
aS'lspm310'
p649
aS'lspm2726'
p650
aS'lspm3065lspm607'
p651
aS'lspm2815'
p652
aS'lspm339'
p653
aS'lspm1460'
p654
aS'lspm3918'
p655
aS'lspm2854'
p656
aS'lspm1557'
p657
aS'lspm2826'
p658
aS'lspm2399'
p659
aS'lspm3954'
p660
aS'lspm2385'
p661
aS'lspm1907'
p662
aS'lspm1668'
p663
aS'lspm3999'
p664
aS'lspm2853'
p665
aS'lspm2907'
p666
aS'lspm381'
p667
aS'lspm2869'
p668
aS'lspm1903'
p669
aS'lspm619'
p670
aS'lspm2916'
p671
aS'lspm2932'
p672
aS'lspm1496'
p673
aS'lspm2892'
p674
aS'lspm2396'
p675
aS'lspm3963'
p676
aS'lspm2408'
p677
aS'lspm3610'
p678
aS'lspm1921'
p679
aS'lspm2971'
p680
aS'lspm3003'
p681
aS'lspm3028'
p682
aS'lspm1985'
p683
aS'lspm1335'
p684
aS'lspm1949'
p685
aS'lspm3005'
p686
aS'lspm559'
p687
aS'lspm3033'
p688
aS'lspm2008'
p689
aS'lspm892'
p690
aS'lspm909'
p691
aS'lspm2453'
p692
aS'lspm2443'
p693
aS'lspm2133'
p694
aS'lspm64'
p695
aS'lspm3104'
p696
aS'lspm2059'
p697
aS'lspm87'
p698
aS'lspm2556'
p699
aS'lspm2565'
p700
aS'lspm2052'
p701
aS'lspm1724'
p702
aS'lspm2295'
p703
aS'lspm1301'
p704
aS'lspm1679'
p705
aS'lspm28'
p706
aS'lspm1700'
p707
aS'lspm1715'
p708
aS'lspm2779'
p709
aS'lspm1893'
p710
aS'lspm2842'
p711
aS'lspm1869'
p712
aS'lspm382'
p713
aS'lspm389'
p714
aS'lspm3846'
p715
aS'lspm3881'
p716
aS'lspm3868'
p717
aS'lspm3947'
p718
aS'lspm1620lspm4083'
p719
aS'lspm2324'
p720
aS'lspm3751'
p721
aS'lspm3876'
p722
aS'lspm2423'
p723
aS'lspm2718'
p724
aS'lspm202'
p725
aS'lspm2639'
p726
aS'lspm1809'
p727
aS'lspm229'
p728
aS'lspm2728'
p729
aS'lspm2797'
p730
aS'lspm311'
p731
aS'lspm1909'
p732
aS'lspm4066'
p733
aS'lspm3588'
p734
aS'lspm3691'
p735
aS'lspm3776'
p736
aS'lspm3884'
p737
aS'lspm4074'
p738
aS'lspm1706'
p739
aS'lspm2314'
p740
aS'lspm2572'
p741
aS'lspm2592'
p742
aS'lspm2742'
p743
aS'lspm207'
p744
aS'lspm2747'
p745
aS'lspm2782'
p746
aS'lspm1891'
p747
aS'lspm1628'
p748
aS'lspm4030'
p749
aS'lspm2375'
p750
aS'lspm3713'
p751
aS'lspm3493'
p752
aS'lspm4103'
p753
aS'lspm2628'
p754
aS'lspm1764'
p755
aS'lspm2819'
p756
aS'lspm2900'
p757
aS'lspm3536'
p758
aS'lspm3576'
p759
aS'lspm3543'
p760
aS'lspm3815'
p761
aS'lspm2368'
p762
aS'lspm3988'
p763
aS'lspm1732'
p764
aS'lspm1782'
p765
aS'lspm1769'
p766
aS'lspm2646'
p767
aS'lspm2716'
p768
aS'lspm1852'
p769
aS'lspm2905'
p770
aS'lspm2887'
p771
aS'lspm1947'
p772
aS'lspm235'
p773
aS'lspm2789'
p774
aS'lspm1827'
p775
aS'lspm314'
p776
aS'lspm1844'
p777
aS'lspm413'
p778
aS'lspm441'
p779
aS'lspm2918'
p780
aS'lspm1951'
p781
aS'lspm2988'
p782
aS'lspm585'
p783
aS'lspm3883'
p784
aS'lspm2420'
p785
aS'lspm4089'
p786
aS'lspm3560'
p787
aS'lspm1641'
p788
aS'lspm1717'
p789
aS'lspm2626'
p790
aS'lspm2649'
p791
aS'lspm2684'
p792
aS'lspm2696'
p793
aS'lspm1847'
p794
aS'lspm352'
p795
aS'lspm2879'
p796
aS'lspm1978'
p797
aS'lspm1980'
p798
aS'lspm575'
p799
aS'lspm2923'
p800
aS'lspm2939'
p801
aS'lspm2961'
p802
aS'lspm3657'
p803
aS'lspm3645'
p804
aS'lspm3738'
p805
aS'lspm2298'
p806
aS'lspm1201'
p807
aS'lspm3712'
p808
aS'lspm3933'
p809
aS'lspm3043'
p810
aS'lspm2672'
p811
aS'lspm3877'
p812
aS'lspm1341'
p813
aS'lspm1196'
p814
aS'lspm3647'
p815
aS'lspm2605'
p816
aS'lspm2623'
p817
aS'lspm2604'
p818
aS'lspm249'
p819
aS'lspm2773'
p820
aS'lspm1279'
p821
aS'lspm2319'
p822
aS'lspm3066'
p823
aS'lspm3084'
p824
aS'lspm2247'
p825
aS'lspm1944'
p826
aS'lspm3879'
p827
aS'lspm2060'
p828
aS'lspm2278'
p829
aS'lspm3890'
p830
aS'lspm2401'
p831
aS'lspm3681'
p832
aS'lspm3869'
p833
aS'lspm3206'
p834
aS'lspm784'
p835
aS'lspm2062'
p836
aS'lspm3215'
p837
aS'lspm3788'
p838
aS'lspm3222'
p839
aS'lspm631'
p840
aS'lspm3908'
p841
aS'lspm4002'
p842
aS'lspm2098'
p843
aS'lspm1973'
p844
aS'lspm3249'
p845
aS'lspm3197'
p846
aS'lspm109'
p847
aS'lspm3639'
p848
aS'lspm3216'
p849
aS'lspm2146'
p850
aS'lspm3245'
p851
aS'lspm662'
p852
aS'lspm2317'
p853
aS'lspm2519'
p854
aS'lspm2896'
p855
aS'lspm2005'
p856
aS'lspm645'
p857
aS'lspm3704'
p858
aS'lspm3213'
p859
aS'lspm3269'
p860
aS'lspm3246'
p861
aS'lspm2893'
p862
aS'lspm2313'
p863
aS'lspm3695'
p864
aS'lspm3760'
p865
aS'lspm3298'
p866
aS'lspm827'
p867
aS'lspm2134'
p868
aS'lspm3284'
p869
aS'lspm2141'
p870
aS'lspm2106'
p871
aS'lspm2132'
p872
aS'lspm2091lspm2096'
p873
aS'lspm1299'
p874
aS'lspm2337'
p875
aS'lspm3308'
p876
aS'lspm4050'
p877
aS'lspm4065'
p878
aS'lspm3892'
p879
aS'lspm3794'
p880
aS'lspm3786'
p881
aS'lspm2316'
p882
aS'lspm3840'
p883
aS'lspm2290'
p884
aS'lspm3312'
p885
aS'lspm2323'
p886
aS'lspm946'
p887
aS'lspm3763'
p888
aS'lspm3664'
p889
aS'lspm2392'
p890
aS'lspm2340'
p891
aS'lspm2135'
p892
aS'lspm2066'
p893
aS'lspm3229'
p894
aS'lspm1737'
p895
aS'lspm1757'
p896
aS'lspm2178'
p897
aS'lspm2204'
p898
aS'lspm2150'
p899
aS'lspm3277'
p900
aS'lspm3416'
p901
aS'lspm3419'
p902
aS'lspm2192'
p903
aS'lspm3891'
p904
aS'lspm2212'
p905
aS'lspm3818'
p906
aS'lspm3400'
p907
aS'lspm3480'
p908
aS'lspm1719'
p909
aS'lspm4014'
p910
aS'lspm2143'
p911
aS'lspm3389'
p912
aS'lspm2179'
p913
aS'lspm2201'
p914
aS'lspm1074'
p915
aS'lspm513'
p916
aS'lspm3882'
p917
aS'lspm1555'
p918
aS'lspm3412'
p919
aS'lspm3420'
p920
aS'lspm4054'
p921
aS'lspm3017'
p922
aS'lspm3429'
p923
aS'lspm3549'
p924
aS'lspm1956'
p925
aS'lspm2567'
p926
aS'lspm1713'
p927
aS'lspm2537'
p928
aS'lspm2621'
p929
aS'lspm2523'
p930
aS'lspm2620'
p931
aS'lspm2757'
p932
aS'lspm237'
p933
aS'lspm2758'
p934
aS'lspm1855'
p935
aS'lspm2777'
p936
aS'lspm2861'
p937
aS'lspm2188'
p938
aS'lspm3743'
p939
aS'lspm2263'
p940
aS'lspm2694'
p941
aS'lspm1772'
p942
aS'lspm3917'
p943
aS'lspm2787'
p944
aS'lspm199'
p945
aS'lspm2673'
p946
aS'lspm2808'
p947
aS'lspm2803'
p948
aS'lspm2786'
p949
aS'lspm2667'
p950
aS'lspm2643'
p951
aS'lspm1841'
p952
aS'lspm2679'
p953
aS'lspm342'
p954
aS'lspm2995'
p955
aS'lspm2776'
p956
aS'lspm2744'
p957
aS'lspm2824'
p958
aS'lspm2970'
p959
aS'lspm2386'
p960
aS'lspm2848'
p961
aS'lspm1888'
p962
aS'lspm1513'
p963
aS'lspm1881'
p964
aS'lspm3037'
p965
aS'lspm1981'
p966
aS'lspm4115'
p967
aS'lspm4024'
p968
aS'lspm3915'
p969
aS'lspm2957'
p970
aS'lspm2928'
p971
aS'lspm1931'
p972
aS'lspm3962'
p973
aS'lspm489'
p974
aS'lspm3030'
p975
aS'lspm4079'
p976
aS'lspm2427'
p977
aS'lspm2436'
p978
aS'lspm2931'
p979
aS'lspm1939'
p980
aS'lspm2987'
p981
aS'lspm2994'
p982
aS'lspm2982'
p983
aS'lspm1678'
p984
aS'lspm3062'
p985
aS'lspm3108'
p986
aS'lspm3237'
p987
aS'lspm2367'
p988
aS'lspm1938'
p989
aS'lspm4107'
p990
aS'lspm4101'
p991
aS'lspm3136'
p992
aS'lspm2976'
p993
aS'lspm3042'
p994
aS'lspm3103'
p995
aS'lspm3129'
p996
aS'lspm3159'
p997
aS'lspm2582'
p998
aS'lspm3164'
p999
aS'lspm3310'
p1000
aS'lspm71'
p1001
aS'lspm2029'
p1002
aS'lspm3153'
p1003
aS'lspm3156'
p1004
aS'lspm1711'
p1005
aS'lspm2543'
p1006
aS'lspm1725'
p1007
aS'lspm2166'
p1008
aS'lspm1726'
p1009
aS'lspm3288'
p1010
aS'lspm2647'
p1011
aS'lspm2634'
p1012
aS'lspm3264'
p1013
aS'lspm2601'
p1014
aS'lspm2624'
p1015
aS'lspm1729'
p1016
aS'lspm3318lspm3315'
p1017
aS'lspm2654'
p1018
aS'lspm4070'
p1019
aS'lspm3819'
p1020
aS'lspm2501'
p1021
aS'lspm1710'
p1022
aS'lspm2683'
p1023
aS'lspm2617'
p1024
aS'lspm1819'
p1025
aS'lspm1810'
p1026
aS'lspm2947'
p1027
aS'lspm2978'
p1028
aS'lspm2924'
p1029
aS'lspm3101'
p1030
aS'lspm3032'
p1031
aS'lspm2945'
p1032
aS'lspm2933'
p1033
aS'lspm4084'
p1034
aS'lspm4114'
p1035
aS'lspm3852'
p1036
aS'lspm3909'
p1037
aS'lspm4073'
p1038
aS'lspm2908'
p1039
aS'lspm3993'
p1040
aS'lspm1876'
p1041
aS'lspm3015'
p1042
aS'lspm3058'
p1043
aS'lspm3196'
p1044
aS'lspm3761'
p1045
aS'lspm3974'
p1046
aS'lspm3811'
p1047
aS'lspm3920'
p1048
aS'lspm3897'
p1049
aS'lspm2426'
p1050
aS'lspm2452'
p1051
aS'lspm3699'
p1052
aS'lspm4013'
p1053
aS'lspm3992'
p1054
aS'lspm3019'
p1055
aS'lspm2998'
p1056
aS'lspm3036'
p1057
aS'lspm3039'
p1058
aS'lspm1940'
p1059
aS'lspm2019'
p1060
aS'lspm3179'
p1061
aS'lspm2540'
p1062
aS'lspm4091'
p1063
aS'lspm3976'
p1064
aS'lspm3684'
p1065
aS'lspm2576'
p1066
aS'lspm3866'
p1067
aS'lspm4023'
p1068
aS'lspm4095'
p1069
aS'lspm3911'
p1070
aS'lspm2524'
p1071
aS'lspm3975lspm3972'
p1072
aS'lspm3687'
p1073
aS'lspm573'
p1074
aS'lspm3082'
p1075
aS'lspm2983'
p1076
aS'lspm4126'
p1077
aS'lspm2373'
p1078
aS'lspm3799'
p1079
aS'lspm3753'
p1080
aS'lspm3783lspm3780'
p1081
aS'lspm1417'
p1082
aS'lspm3964'
p1083
aS'lspm3946'
p1084
aS'lspm2431'
p1085
aS'lspm3898'
p1086
aS'lspm4105'
p1087
aS'lspm4022'
p1088
aS'lspm2922'
p1089
aS'lspm2857'
p1090
aS'lspm2934'
p1091
aS'lspm1936'
p1092
aS'lspm1919'
p1093
aS'lspm2913'
p1094
aS'lspm4059'
p1095
aS'lspm2338'
p1096
aS'lspm3941'
p1097
aS'lspm3955'
p1098
aS'lspm1658'
p1099
aS'lspm3749'
p1100
aS'lspm4069'
p1101
aS'lspm2529'
p1102
aS'lspm3859'
p1103
aS'lspm3791'
p1104
aS'lspm3839'
p1105
aS'lspm2839'
p1106
aS'lspm2849'
p1107
aS'lspm4012'
p1108
aS'lspm2942'
p1109
aS'lspm3050'
p1110
aS'lspm527'
p1111
aS'lspm3083'
p1112
aS'lspm2953'
p1113
aS'lspm3885'
p1114
aS'lspm3849'
p1115
aS'lspm3574'
p1116
aS'lspm3652'
p1117
aS'lspm3646'
p1118
aS'lspm4067'
p1119
aS'lspm2640'
p1120
aS'lspm1677'
p1121
aS'lspm4122'
p1122
aS'lspm1680'
p1123
aS'lspm2591'
p1124
aS'lspm2984'
p1125
aS'lspm2989'
p1126
aS'lspm2920'
p1127
aS'lspm1930'
p1128
aS'lspm1684'
p1129
aS'lspm3026'
p1130
aS'lspm3116'
p1131
aS'lspm3034'
p1132
aS'lspm3059'
p1133
aS'lspm3754'
p1134
aS'lspm3767'
p1135
aS'lspm3565'
p1136
aS'lspm3542'
p1137
aS'lspm3813'
p1138
aS'lspm2600'
p1139
aS'lspm3644'
p1140
aS'lspm2559'
p1141
aS'lspm2629'
p1142
aS'lspm2935'
p1143
aS'lspm1926'
p1144
aS'lspm3111'
p1145
aS'lspm3048'
p1146
aS'lspm1935'
p1147
aS'lspm2975'
p1148
aS'lspm1964'
p1149
aS'lspm3045'
p1150
aS'lspm3585'
p1151
aS'lspm3582'
p1152
aS'lspm3969'
p1153
aS'lspm3804'
p1154
aS'lspm3689'
p1155
aS'lspm99'
p1156
aS'lspm3910'
p1157
aS'lspm4111'
p1158
aS'lspm3630'
p1159
aS'lspm4038'
p1160
aS'lspm3750'
p1161
aS'lspm2541'
p1162
aS'lspm2661'
p1163
aS'lspm2912'
p1164
aS'lspm2968'
p1165
aS'lspm3057'
p1166
aS'lspm3145'
p1167
aS'lspm3870'
p1168
aS'lspm3537'
p1169
aS'lspm3861'
p1170
aS'lspm3996'
p1171
aS'lspm3831'
p1172
aS'lspm3998'
p1173
aS'lspm3994'
p1174
aS'lspm2525'
p1175
aS'lspm2595'
p1176
aS'lspm2850'
p1177
aS'lspm2951'
p1178
aS'lspm2979'
p1179
aS'lspm2974'
p1180
aS'lspm3643'
p1181
aS'lspm3494'
p1182
aS'lspm3661'
p1183
aS'lspm3653'
p1184
aS'lspm2275'
p1185
aS'lspm3518'
p1186
aS'lspm2564'
p1187
aS'lspm2597'
p1188
aS'lspm2587'
p1189
aS'lspm1740'
p1190
aS'lspm2585'
p1191
aS'lspm2411'
p1192
aS'lspm3817'
p1193
aS'lspm3900lspm3899'
p1194
aS'lspm3041'
p1195
aS'lspm3175'
p1196
aS'lspm3919'
p1197
aS'lspm2612'
p1198
aS'lspm4128'
p1199
aS'lspm2599'
p1200
aS'lspm3995'
p1201
aS'lspm3044'
p1202
aS'lspm3011'
p1203
aS'lspm3790'
p1204
aS'lspm3710'
p1205
aS'lspm4000'
p1206
aS'lspm3659'
p1207
aS'lspm3923'
p1208
aS'lspm3583'
p1209
aS'lspm3594'
p1210
aS'lspm3665'
p1211
aS'lspm3621'
p1212
aS'lspm3719'
p1213
aS'lspm2551'
p1214
aS'lspm2845'
p1215
aS'lspm2456'
p1216
aS'lspm2579'
p1217
aS'lspm3871'
p1218
aS'lspm2657'
p1219
aS'lspm4062'
p1220
aS'lspm3828'
p1221
aS'lspm3029'
p1222
aS'lspm3903'
p1223
aS'lspm3774'
p1224
aS'lspm1743'
p1225
aS'lspm4064'
p1226
aS'lspm1716'
p1227
aS'lspm2598'
p1228
aS'lspm2963'
p1229
aS'lspm2996'
p1230
aS'lspm3072'
p1231
aS'lspm301'
p1232
aS'lspm302'
p1233
aS'lspm3612'
p1234
aS'lspm3629'
p1235
aS'lspm3605'
p1236
aS'lspm3726'
p1237
aS'lspm3864'
p1238
aS'lspm3816'
p1239
aS'lspm2665'
p1240
aS'lspm3667'
p1241
aS'lspm3727'
p1242
aS'lspm2527'
p1243
aS'lspm2393'
p1244
aS'lspm2561'
p1245
aS'lspm2607'
p1246
aS'lspm1766'
p1247
aS'lspm2675'
p1248
aS'lspm2687lspm2686lspm2689'
p1249
aS'lspm2817'
p1250
aS'lspm2471'
p1251
aS'lspm2746'
p1252
aS'lspm4121'
p1253
aS'lspm1975'
p1254
aS'lspm3626'
p1255
aS'lspm3943'
p1256
aS'lspm3865'
p1257
aS'lspm4009'
p1258
aS'lspm1225'
p1259
aS'lspm2430'
p1260
aS'lspm4063'
p1261
aS'lspm4021'
p1262
aS'lspm2285'
p1263
aS'lspm3558'
p1264
aS'lspm2325'
p1265
aS'lspm3820'
p1266
aS'lspm2691'
p1267
aS'lspm2329'
p1268
aS'lspm2615'
p1269
aS'lspm156'
p1270
aS'lspm1783'
p1271
aS'lspm2725'
p1272
aS'lspm3035'
p1273
aS'lspm3076'
p1274
aS'lspm3117'
p1275
aS'lspm3060'
p1276
aS'lspm3548'
p1277
aS'lspm2288'
p1278
aS'lspm3617'
p1279
aS'lspm3509'
p1280
aS'lspm3545'
p1281
aS'lspm3635'
p1282
aS'lspm3601'
p1283
aS'lspm2618'
p1284
aS'lspm155'
p1285
aS'lspm1738'
p1286
aS'lspm2692'
p1287
aS'lspm3907'
p1288
aS'lspm3063'
p1289
aS'lspm3331'
p1290
aS'lspm3094'
p1291
aS'lspm630'
p1292
aS'lspm3734'
p1293
aS'lspm2287'
p1294
aS'lspm3634'
p1295
aS'lspm3640'
p1296
aS'lspm3571'
p1297
aS'lspm3914'
p1298
aS'lspm3627'
p1299
aS'lspm3973'
p1300
aS'lspm161'
p1301
aS'lspm1682'
p1302
aS'lspm3755'
p1303
aS'lspm2596'
p1304
aS'lspm2580'
p1305
aS'lspm2593'
p1306
aS'lspm2610'
p1307
aS'lspm1736'
p1308
aS'lspm2633'
p1309
aS'lspm2644'
p1310
aS'lspm1765'
p1311
aS'lspm2652'
p1312
aS'lspm2676'
p1313
aS'lspm3001'
p1314
aS'lspm3061'
p1315
aS'lspm3668'
p1316
aS'lspm3655'
p1317
aS'lspm3651'
p1318
aS'lspm2286'
p1319
aS'lspm4033'
p1320
aS'lspm2844'
p1321
aS'lspm2609'
p1322
aS'lspm3807'
p1323
aS'lspm2625'
p1324
aS'lspm2642'
p1325
aS'lspm1774'
p1326
aS'lspm3987'
p1327
aS'lspm3092'
p1328
aS'lspm3053'
p1329
aS'lspm1999'
p1330
aS'lspm3675'
p1331
aS'lspm2291'
p1332
aS'lspm3662'
p1333
aS'lspm3670'
p1334
aS'lspm1239'
p1335
aS'lspm2244'
p1336
aS'lspm3633'
p1337
aS'lspm3501'
p1338
aS'lspm2267'
p1339
aS'lspm3928'
p1340
aS'lspm2390'
p1341
aS'lspm3997'
p1342
aS'lspm3938'
p1343
aS'lspm2554'
p1344
aS'lspm1785'
p1345
aS'lspm173lspm172lspm2638'
p1346
aS'lspm2637'
p1347
aS'lspm2674'
p1348
aS'lspm2680'
p1349
aS'lspm2677'
p1350
aS'lspm2688'
p1351
aS'lspm2695'
p1352
aS'lspm442'
p1353
aS'lspm291'
p1354
aS'lspm3176'
p1355
aS'lspm2827'
p1356
aS'lspm2669'
p1357
aS'lspm2880'
p1358
aS'lspm1801'
p1359
aS'lspm2813'
p1360
aS'lspm2825'
p1361
aS'lspm2820'
p1362
aS'lspm2812'
p1363
aS'lspm3007'
p1364
aS'lspm2784'
p1365
aS'lspm2754'
p1366
aS'lspm2802'
p1367
aS'lspm1807'
p1368
aS'lspm2768'
p1369
aS'lspm3893'
p1370
aS'lspm1837'
p1371
aS'lspm2790'
p1372
aS'lspm2752'
p1373
aS'lspm2805'
p1374
aS'lspm2761'
p1375
aS'lspm3765'
p1376
aS'lspm251'
p1377
aS'lspm391'
p1378
aS'lspm2670'
p1379
aS'lspm2648'
p1380
aS'lspm1818'
p1381
aS'lspm2734'
p1382
aS'lspm1849'
p1383
aS'lspm2883'
p1384
aS'lspm3038'
p1385
aS'lspm2720'
p1386
aS'lspm1750'
p1387
aS'lspm3949'
p1388
aS'lspm3836'
p1389
aS'lspm1823'
p1390
aS'lspm2581'
p1391
aS'lspm2699'
p1392
aS'lspm1815'
p1393
aS'lspm2727'
p1394
aS'lspm1812'
p1395
aS'lspm2836'
p1396
aS'lspm2841'
p1397
aS'lspm2856'
p1398
aS'lspm2292'
p1399
aS'lspm3676'
p1400
aS'lspm2261'
p1401
aS'lspm91'
p1402
aS'lspm2721'
p1403
aS'lspm2769'
p1404
aS'lspm2793'
p1405
aS'lspm1839'
p1406
aS'lspm2847'
p1407
aS'lspm2562'
p1408
aS'lspm2730'
p1409
aS'lspm2763'
p1410
aS'lspm3847'
p1411
aS'lspm3939'
p1412
aS'lspm2711'
p1413
aS'lspm2838'
p1414
aS'lspm2700'
p1415
aS'lspm1806'
p1416
aS'lspm2717'
p1417
aS'lspm2736'
p1418
aS'lspm2851'
p1419
aS'lspm2833'
p1420
aS'lspm2843'
p1421
aS'lspm2952'
p1422
aS'lspm2860lspm1873'
p1423
aS'lspm2872'
p1424
aS'lspm1835'
p1425
aS'lspm2781'
p1426
aS'lspm3615'
p1427
aS'lspm3940'
p1428
aS'lspm4041'
p1429
aS'lspm2249'
p1430
aS'lspm3555'
p1431
aS'lspm2831'
p1432
aS'lspm227'
p1433
aS'lspm2807'
p1434
aS'lspm2866'
p1435
aS'lspm2738'
p1436
aS'lspm1814'
p1437
aS'lspm2837'
p1438
aS'lspm2753'
p1439
aS'lspm1822'
p1440
aS'lspm2755'
p1441
aS'lspm1846'
p1442
aS'lspm2760'
p1443
aS'lspm2865'
p1444
aS'lspm1883'
p1445
aS'lspm2884'
p1446
aS'lspm1895'
p1447
aS'lspm1904'
p1448
aS'lspm1364'
p1449
aS'lspm3773'
p1450
aS'lspm3705'
p1451
aS'lspm3769'
p1452
aS'lspm2886'
p1453
aS'lspm447'
p1454
aS'lspm1902'
p1455
aS'lspm2938'
p1456
aS'lspm2941'
p1457
aS'lspm2914'
p1458
aS'lspm1905'
p1459
aS'lspm1886'
p1460
aS'lspm2930'
p1461
aS'lspm2919'
p1462
aS'lspm2946'
p1463
aS'lspm2899'
p1464
aS'lspm2926'
p1465
aS'lspm2927'
p1466
aS'lspm438'
p1467
aS'lspm1462'
p1468
aS'lspm3872'
p1469
aS'lspm112'
p1470
aS'lspm16'
p1471
aS'lspm2759'
p1472
aS'lspm3838'
p1473
aS'lspm187'
p1474
aS'lspm3728'
p1475
aS'lspm3611'
p1476
aS'lspm1789'
p1477
aS'lspm2658'
p1478
aS'lspm3741'
p1479
aS'lspm3625'
p1480
aS'lspm3702'
p1481
aS'lspm3706'
p1482
aS'lspm2577'
p1483
aS'lspm3636'
p1484
aS'lspm2619'
p1485
aS'lspm3986'
p1486
aS'lspm3951'
p1487
aS'lspm1749'
p1488
aS'lspm2666'
p1489
aS'lspm2714'
p1490
aS'lspm3744'
p1491
aS'lspm3632'
p1492
aS'lspm2352lspm3823'
p1493
aS'lspm4097'
p1494
aS'lspm4086'
p1495
aS'lspm2566'
p1496
aS'lspm2655'
p1497
aS'lspm2796'
p1498
aS'lspm2764'
p1499
aS'lspm2774'
p1500
aS'lspm3762'
p1501
aS'lspm2949'
p1502
aS'lspm1927'
p1503
aS'lspm3978'
p1504
aS'lspm4046'
p1505
aS'lspm2885'
p1506
aS'lspm2834'
p1507
aS'lspm4006'
p1508
aS'lspm335'
p1509
aS'lspm2822'
p1510
aS'lspm1840'
p1511
aS'lspm2740'
p1512
aS'lspm1924'
p1513
aS'lspm1942'
p1514
aS'lspm2510'
p1515
aS'lspm1728'
p1516
aS'lspm1753'
p1517
aS'lspm1758'
p1518
aS'lspm1770'
p1519
aS'lspm258'
p1520
aS'lspm2959'
p1521
aS'lspm2937'
p1522
aS'lspm2956'
p1523
aS'lspm2704'
p1524
aS'lspm3991'
p1525
aS'lspm3055'
p1526
aS'lspm2950'
p1527
aS'lspm3256'
p1528
aS'lspm4085'
p1529
aS'lspm1872'
p1530
aS'lspm1920lspm2936'
p1531
aS'lspm2713'
p1532
aS'lspm327'
p1533
aS'lspm2881'
p1534
aS'lspm1560'
p1535
aS'lspm2454'
p1536
aS'lspm3857'
p1537
aS'lspm4118'
p1538
aS'lspm3679'
p1539
aS'lspm3771'
p1540
aS'lspm3693'
p1541
aS'lspm3825'
p1542
aS'lspm3223'
p1543
aS'lspm3637'
p1544
aS'lspm3889'
p1545
aS'lspm1473'
p1546
aS'lspm3960'
p1547
aS'lspm2424'
p1548
aS'lspm4106'
p1549
aS'lspm3983'
p1550
aS'lspm2830'
p1551
aS'lspm2985'
p1552
aS'lspm3579'
p1553
aS'lspm2300'
p1554
aS'lspm3677'
p1555
aS'lspm3782'
p1556
aS'lspm3714'
p1557
aS'lspm3812'
p1558
aS'lspm3663'
p1559
aS'lspm4016'
p1560
aS'lspm3894'
p1561
aS'lspm1316'
p1562
aS'lspm4060'
p1563
aS'lspm4027'
p1564
aS'lspm4043'
p1565
aS'lspm3023'
p1566
aS'lspm2007'
p1567
aS'lspm1516'
p1568
aS'lspm2383'
p1569
aS'lspm3268'
p1570
aS'lspm3692'
p1571
aS'lspm3772'
p1572
aS'lspm1265'
p1573
aS'lspm3729'
p1574
aS'lspm1235'
p1575
aS'lspm4098'
p1576
aS'lspm2546'
p1577
aS'lspm2280'
p1578
aS'lspm1452'
p1579
aS'lspm1756'
p1580
aS'lspm3241'
p1581
aS'lspm3217'
p1582
aS'lspm3278'
p1583
aS'lspm2069'
p1584
aS'lspm3239'
p1585
aS'lspm2114'
p1586
aS'lspm3238'
p1587
aS'lspm3289'
p1588
aS'lspm3314'
p1589
aS'lspm3203'
p1590
aS'lspm2095'
p1591
aS'lspm3192'
p1592
aS'lspm3231'
p1593
aS'lspm813'
p1594
aS'lspm871'
p1595
aS'lspm3230'
p1596
aS'lspm3301'
p1597
aS'lspm3295'
p1598
aS'lspm3234'
p1599
aS'lspm3250'
p1600
aS'lspm3297'
p1601
aS'lspm3255'
p1602
aS'lspm3248'
p1603
aS'lspm2131lspm3317'
p1604
aS'lspm2124'
p1605
aS'lspm3346'
p1606
aS'lspm3262'
p1607
aS'lspm3263'
p1608
aS'lspm3265'
p1609
aS'lspm3258'
p1610
aS'lspm2109'
p1611
aS'lspm2111'
p1612
aS'lspm2127'
p1613
aS'lspm2122lspm2121'
p1614
aS'lspm3336'
p1615
aS'lspm3357'
p1616
aS'lspm3286'
p1617
aS'lspm2108'
p1618
aS'lspm3291'
p1619
aS'lspm3321'
p1620
aS'lspm2118'
p1621
aS'lspm3325'
p1622
aS'lspm2156'
p1623
aS'lspm3307'
p1624
aS'lspm3338'
p1625
aS'lspm2154'
p1626
aS'lspm3345'
p1627
aS'lspm3316'
p1628
aS'lspm3367'
p1629
aS'lspm3332'
p1630
aS'lspm3339'
p1631
aS'lspm3343'
p1632
aS'lspm3334'
p1633
aS'lspm3302'
p1634
aS'lspm3296'
p1635
aS'lspm3356'
p1636
aS'lspm3293'
p1637
aS'lspm3340'
p1638
aS'lspm3341'
p1639
aS'lspm2159'
p1640
aS'lspm3326'
p1641
aS'lspm3294'
p1642
aS'lspm2172'
p1643
aS'lspm3391'
p1644
aS'lspm995'
p1645
aS'lspm3328'
p1646
aS'lspm2170'
p1647
aS'lspm3353'
p1648
aS'lspm3303'
p1649
aS'lspm945'
p1650
aS'lspm3335'
p1651
aS'lspm3300'
p1652
aS'lspm3376'
p1653
aS'lspm3435'
p1654
aS'lspm3370'
p1655
aS'lspm2190'
p1656
aS'lspm3426'
p1657
aS'lspm3408'
p1658
aS'lspm3364'
p1659
aS'lspm3361lspm3359'
p1660
aS'lspm3311'
p1661
aS'lspm2175'
p1662
aS'lspm3378'
p1663
aS'lspm3377'
p1664
aS'lspm3411'
p1665
aS'lspm3418'
p1666
aS'lspm3309'
p1667
aS'lspm3407'
p1668
aS'lspm3365'
p1669
aS'lspm3355'
p1670
aS'lspm2157'
p1671
aS'lspm3327'
p1672
aS'lspm2103'
p1673
aS'lspm3406'
p1674
aS'lspm3388'
p1675
aS'lspm3436'
p1676
aS'lspm3392'
p1677
aS'lspm3354'
p1678
aS'lspm3362'
p1679
aS'lspm3352'
p1680
aS'lspm3396'
p1681
aS'lspm991'
p1682
aS'lspm3366'
p1683
aS'lspm3439'
p1684
aS'lspm3449'
p1685
aS'lspm2224'
p1686
aS'lspm3478'
p1687
aS'lspm3415'
p1688
aS'lspm2187'
p1689
aS'lspm3349'
p1690
aS'lspm3438'
p1691
aS'lspm3445'
p1692
aS'lspm2211'
p1693
aS'lspm3363'
p1694
aS'lspm3387'
p1695
aS'lspm3372'
p1696
aS'lspm963'
p1697
aS'lspm2226'
p1698
aS'lspm2208'
p1699
aS'lspm3380'
p1700
aS'lspm3447'
p1701
aS'lspm3461'
p1702
aS'lspm3421'
p1703
aS'lspm3457'
p1704
aS'lspm3459'
p1705
aS'lspm3467'
p1706
aS'lspm3444'
p1707
aS'lspm3423'
p1708
aS'lspm2223'
p1709
aS'lspm2195'
p1710
aS'lspm2219'
p1711
aS'lspm3405'
p1712
aS'lspm3410'
p1713
aS'lspm3489'
p1714
aS'lspm3382'
p1715
aS'lspm3519'
p1716
aS'lspm1029'
p1717
aS'lspm3507'
p1718
aS'lspm3453'
p1719
aS'lspm3430'
p1720
aS'lspm3481'
p1721
aS'lspm1002'
p1722
aS'lspm3488'
p1723
aS'lspm3482'
p1724
aS'lspm3510'
p1725
aS'lspm3506'
p1726
aS'lspm3492'
p1727
aS'lspm3456'
p1728
aS'lspm2233'
p1729
aS'lspm3486'
p1730
aS'lspm3529'
p1731
aS'lspm2250'
p1732
aS'lspm3398'
p1733
aS'lspm3495'
p1734
aS'lspm3448'
p1735
aS'lspm3500'
p1736
aS'lspm3534'
p1737
aS'lspm2240'
p1738
aS'lspm3525'
p1739
aS'lspm3499'
p1740
aS'lspm3533'
p1741
aS'lspm3527'
p1742
aS'lspm3554'
p1743
aS'lspm3552'
p1744
aS'lspm3531'
p1745
aS'lspm3530'
p1746
aS'lspm2248'
p1747
aS'lspm3540'
p1748
aS'lspm3371'
p1749
aS'lspm2253'
p1750
aS'lspm3547'
p1751
aS'lspm3581'
p1752
aS'lspm3572'
p1753
aS'lspm3544'
p1754
aS'lspm2272'
p1755
aS'lspm2277'
p1756
aS'lspm3598'
p1757
aS'lspm3483'
p1758
aS'lspm3528'
p1759
aS'lspm818'
p1760
a(lp1761
(lp1762
S'18064856+1720472'
p1763
aa(lp1764
S'17151894+0457496'
p1765
aa(lp1766
S'17074083+0722066'
p1767
aa(lp1768
S'17174408+1140117'
p1769
aa(lp1770
S'17541710+0722446'
p1771
aa(lp1772
S'18481752+0741210'
p1773
aa(lp1774
S'18220671+0620376'
p1775
aa(lp1776
S'18052911+0132359'
p1777
aa(lp1778
S'18232835+2810041'
p1779
aa(lp1780
S'20032651+2952000'
p1781
aa(lp1782
S'21144753+1604498'
p1783
aa(lp1784
S'21322198+2433419'
p1785
aa(lp1786
S'21462206+3813047'
p1787
aa(lp1788
S'23005509+5423232'
p1789
aa(lp1790
S'23430628+3632132'
p1791
aa(lp1792
S'01285815+8656176'
p1793
aa(lp1794
S'03371407+6910498'
p1795
aa(lp1796
S'05081841+7538154'
p1797
aa(lp1798
S'03392972+2458028'
p1799
aS'03395284+2457273'
p1800
aa(lp1801
S'05204138+5847330'
p1802
aS'05204073+5847198'
p1803
aa(lp1804
S'05463844+4407198'
p1805
aa(lp1806
S'05105747+1837359'
p1807
aa(lp1808
S'05402570+2448090'
p1809
aa(lp1810
S'05280015+0938382'
p1811
aa(lp1812
S'08022287+0320196'
p1813
aS'08022064+0319434'
p1814
aS'08021516+0326482'
p1815
aa(lp1816
S'08351992+1408333'
p1817
aa(lp1818
S'08111529+3607285'
p1819
aa(lp1820
S'08412013+5929505'
p1821
aa(lp1822
S'08595604+7257364'
p1823
aa(lp1824
S'17244172+0422492'
p1825
aa(lp1826
S'19454548+2707318'
p1827
aa(lp1828
S'20061613+1609213'
p1829
aS'20063105+1559171'
p1830
aa(lp1831
S'20174333+0559173'
p1832
aa(lp1833
S'20294834+0941202'
p1834
aa(lp1835
S'16400599+0042188'
p1836
aa(lp1837
S'19095098+1740074'
p1838
aa(lp1839
S'19220206+0702310'
p1840
aa(lp1841
S'20035098+0559440'
p1842
aa(lp1843
S'20434307+5509469'
p1844
aS'20431920+5520521'
p1845
aa(lp1846
S'23050871+4517318'
p1847
aa(lp1848
S'18130657+2601519'
p1849
aa(lp1850
S'22523963+7504190'
p1851
aa(lp1852
S'00182549+4401376'
p1853
aS'00182256+4401222'
p1854
aa(lp1855
S'23425274+3049219'
p1856
aa(lp1857
S'23025250+4338157'
p1858
aa(lp1859
S'03031233+7233560'
p1860
aa(lp1861
S'03180701+4240091'
p1862
aa(lp1863
S'03284958+2629122'
p1864
aa(lp1865
S'05041476+1103238'
p1866
aa(lp1867
S'05532295+2212500'
p1868
aa(lp1869
S'08524084+2818589'
p1870
aa(lp1871
S'08581267+1943486'
p1872
aS'08581519+1945470'
p1873
aa(lp1874
S'08041456+1116015'
p1875
aa(lp1876
S'05571864+1708299'
p1877
aa(lp1878
S'08065532+4217333'
p1879
aa(lp1880
S'08114760+5311513'
p1881
aa(lp1882
S'10092996+5117197'
p1883
aa(lp1884
S'15411642+7559347'
p1885
aa(lp1886
S'14153966+7224132'
p1887
aa(lp1888
S'14442542+5817130'
p1889
aa(lp1890
S'15040626+4858538'
p1891
aa(lp1892
S'00441813+5417351'
p1893
aa(lp1894
S'14311348+7526423'
p1895
aa(lp1896
S'14515703+6307588'
p1897
aa(lp1898
S'00422193+3429220'
p1899
aa(lp1900
S'00405623+3122565'
p1901
aa(lp1902
S'00020623+0115360'
p1903
aa(lp1904
S'00355557+1028352'
p1905
aa(lp1906
S'00393349+1454188'
p1907
aS'00393374+1454348'
p1908
aa(lp1909
S'00442070+0907345'
p1910
aa(lp1911
S'03132299+0446293'
p1912
aa(lp1913
S'07150088+0129420'
p1914
aa(lp1915
S'07312949+0249084'
p1916
aa(lp1917
S'08105362+0358335'
p1918
aa(lp1919
S'09170753+2007549'
p1920
aa(lp1921
S'15474070+2241165'
p1922
aa(lp1923
S'15115144+3933024'
p1924
aa(lp1925
S'00251602+5422547'
p1926
aa(lp1927
S'00321574+5429027'
p1928
aa(lp1929
S'00350487+5953079'
p1930
aa(lp1931
S'00343773+7111418'
p1932
aa(lp1933
S'18410977+2447143'
p1934
aS'18410981+2447195'
p1935
aa(lp1936
S'00011579+0659355'
p1937
aa(lp1938
S'00211645+1843558'
p1939
aa(lp1940
S'00275592+2219328'
p1941
aa(lp1942
S'09182301+6037310'
p1943
aa(lp1944
S'09422327+5559015'
p1945
aa(lp1946
S'09533208+5115080'
p1947
aa(lp1948
S'09301445+2630250'
p1949
aa(lp1950
S'09291113+2558095'
p1951
aa(lp1952
S'16025098+2035218'
p1953
aa(lp1954
S'15315427+2851096'
p1955
aa(lp1956
S'15123818+4543464'
p1957
aa(lp1958
S'00151880+4344347'
p1959
aa(lp1960
S'00285391+5022330'
p1961
aa(lp1962
S'00260258+3947235'
p1963
aa(lp1964
S'00343787+4050022'
p1965
aa(lp1966
S'00243478+3002295'
p1967
aa(lp1968
S'00300277+2015320'
p1969
aa(lp1970
S'00263162+1459223'
p1971
aa(lp1972
S'09214911+4330284'
p1973
aa(lp1974
S'09450508+3833278'
p1975
aa(lp1976
S'08561956+1239500'
p1977
aa(lp1978
S'09061408+1251347'
p1979
aa(lp1980
S'15493833+3448555'
p1981
aS'15501862+3437114'
p1982
aS'15501855+3437158'
p1983
aa(lp1984
S'00382766+6150062'
p1985
aa(lp1986
S'00443876+6757295'
p1987
aa(lp1988
S'14283953+7739186'
p1989
aa(lp1990
S'14384825+5925014'
p1991
aa(lp1992
S'14575374+5639242'
p1993
aa(lp1994
S'00434891+4616210'
p1995
aa(lp1996
S'00433558+2826414'
p1997
aa(lp1998
S'00332236+1448063'
p1999
aa(lp2000
S'00415543+1341162'
p2001
aa(lp2002
S'00312156+0009294'
p2003
aa(lp2004
S'07515138+0532572'
p2005
aa(lp2006
S'08104804+0109118'
p2007
aa(lp2008
S'08373021+0333458'
p2009
aa(lp2010
S'09043131+1625005'
p2011
aa(lp2012
S'15400352+4329396'
p2013
aa(lp2014
S'00270673+4941531'
p2015
aa(lp2016
S'00355358+5241368'
p2017
aS'00355322+5241123'
p2018
aa(lp2019
S'00391896+5508132'
p2020
aa(lp2021
S'00313082+7614583'
p2022
aa(lp2023
S'00261337+4626537'
p2024
aa(lp2025
S'00185352+2748499'
p2026
aa(lp2027
S'00240376+2626299'
p2028
aa(lp2029
S'00161455+1951385'
p2030
aS'00161607+1951515'
p2031
aS'00165678+2003551'
p2032
aa(lp2033
S'00252063+2253121'
p2034
aa(lp2035
S'00154919+1333218'
p2036
aa(lp2037
S'10075949+6914458'
p2038
aa(lp2039
S'09591880+4350256'
p2040
aa(lp2041
S'09373184+2838094'
p2042
aa(lp2043
S'23112378+0831013'
p2044
aa(lp2045
S'23352429+3003449'
p2046
aa(lp2047
S'16015262+3027347'
p2048
aS'16014453+3027407'
p2049
aS'16014360+3010502'
p2050
aa(lp2051
S'15512179+2931062'
p2052
aa(lp2053
S'15272423+3714148'
p2054
aa(lp2055
S'08400503+0709161'
p2056
aa(lp2057
S'08595559+0610052'
p2058
aa(lp2059
S'15211607+3945164'
p2060
aa(lp2061
S'10314321+5706571'
p2062
aS'10313075+5705179'
p2063
aa(lp2064
S'10005030+3155459'
p2065
aa(lp2066
S'09032096+0540145'
p2067
aa(lp2068
S'09100074+0901381'
p2069
aa(lp2070
S'15101199+4624066'
p2071
aa(lp2072
S'09332186+1829160'
p2073
aa(lp2074
S'09025284+6803464'
p2075
aa(lp2076
S'09594595+4712114'
p2077
aa(lp2078
S'10265964+5506530'
p2079
aa(lp2080
S'09410199+2201291'
p2081
aa(lp2082
S'17195298+2630026'
p2083
aS'17195422+2630030'
p2084
aa(lp2085
S'22232904+3227334'
p2086
aa(lp2087
S'03472091+0841464'
p2088
aa(lp2089
S'14581678+5921314'
p2090
aa(lp2091
S'10235185+4353332'
p2092
aa(lp2093
S'16061363+2901553'
p2094
aa(lp2095
S'10114392+3518447'
p2096
aa(lp2097
S'10364812+5055041'
p2098
aa(lp2099
S'15553178+3512028'
p2100
aa(lp2101
S'10343020+4618090'
p2102
aS'10342590+4618226'
p2103
aa(lp2104
S'15294392+4252498'
p2105
aa(lp2106
S'20221476+3117447'
p2107
aa(lp2108
S'17532184+0443216'
p2109
aa(lp2110
S'09535523+2056460'
p2111
aa(lp2112
S'15462342+3102545'
p2113
aS'15473092+3044169'
p2114
aa(lp2115
S'09264503+0857421'
p2116
aa(lp2117
S'09562699+2239015'
p2118
aa(lp2119
S'10260265+5027090'
p2120
aS'10260331+5027220'
p2121
aa(lp2122
S'09020690+0033195'
p2123
aa(lp2124
S'15341153+4619426'
p2125
aS'15333933+4615027'
p2126
aa(lp2127
S'09132302+0340424'
p2128
aa(lp2129
S'23491501+1005385'
p2130
aS'23503619+0956537'
p2131
aa(lp2132
S'16071362+2650173'
p2133
aa(lp2134
S'15081193+6221535'
p2135
aa(lp2136
S'02530084+1652532'
p2137
aa(lp2138
S'04311147+5858375'
p2139
aa(lp2140
S'06000351+0242236'
p2141
aa(lp2142
S'18261655+0146210'
p2143
aa(lp2144
S'02001278+1303112'
p2145
aa(lp2146
S'23415498+4410407'
p2147
aa(lp2148
S'00452643+5703212'
p2149
aa(lp2150
S'01532600+7330177'
p2151
aS'01532823+7329424'
p2152
aa(lp2153
S'15263317+5522206'
p2154
aa(lp2155
S'01022627+4102098'
p2156
aS'01022695+4101442'
p2157
aa(lp2158
S'18185725+6611332'
p2159
aa(lp2160
S'19581651+6502184'
p2161
aa(lp2162
S'21464021+6648105'
p2163
aa(lp2164
S'15495517+7939517'
p2165
aa(lp2166
S'14213290+8256596'
p2167
aa(lp2168
S'15033500+8438267'
p2169
aa(lp2170
S'20592035+5303049'
p2171
aa(lp2172
S'18041061+8350281'
p2173
aa(lp2174
S'18495449+1840295'
p2175
aa(lp2176
S'19143932+1918219'
p2177
aS'19143925+1919025'
p2178
aa(lp2179
S'15020759+7527526'
p2180
aa(lp2181
S'15012274+8202252'
p2182
aa(lp2183
S'17585673+8042435'
p2184
aa(lp2185
S'07581803+8757398'
p2186
aa(lp2187
S'04075479+1413006'
p2188
aS'04074393+1413246'
p2189
aa(lp2190
S'09174599+5825224'
p2191
aa(lp2192
S'09205794+0322064'
p2193
aa(lp2194
S'18361922+1336261'
p2195
aa(lp2196
S'18424498+1354168'
p2197
aa(lp2198
S'19082996+3216520'
p2199
aS'19074283+3232396'
p2200
aa(lp2201
S'20572537+2221457'
p2202
aa(lp2203
S'00511344+5839530'
p2204
aa(lp2205
S'01223043+8854309'
p2206
aa(lp2207
S'15144680+6433439'
p2208
aa(lp2209
S'15340386+5122023'
p2210
aa(lp2211
S'09322561+7650427'
p2212
aa(lp2213
S'08585633+0828259'
p2214
aa(lp2215
S'17311725+8205198'
p2216
aa(lp2217
S'15001334+7919392'
p2218
aa(lp2219
S'15170299+6951497'
p2220
aa(lp2221
S'16311879+4051516'
p2222
aa(lp2223
S'00482467+6024305'
p2224
aa(lp2225
S'01550230+3758027'
p2226
aa(lp2227
S'08444536+1813072'
p2228
aa(lp2229
S'18133315+0532118'
p2230
aS'18132818+0526583'
p2231
aa(lp2232
S'19071320+2052372'
p2233
aS'19070556+2053168'
p2234
aa(lp2235
S'01023895+6220422'
p2236
aS'01031971+6221557'
p2237
aa(lp2238
S'15081017+7342041'
p2239
aa(lp2240
S'15191869+6751171'
p2241
aa(lp2242
S'17032384+5124219'
p2243
aa(lp2244
S'08134450+7918114'
p2245
aa(lp2246
S'09211954+7306387'
p2247
aa(lp2248
S'09473481+1256390'
p2249
aa(lp2250
S'22542171+6059439'
p2251
aa(lp2252
S'22251705+5924495'
p2253
aa(lp2254
S'18222719+6203025'
p2255
aa(lp2256
S'03192872+6156045'
p2257
aa(lp2258
S'18180427+3846342'
p2259
aS'18180345+3846359'
p2260
aa(lp2261
S'01174255+6459047'
p2262
aa(lp2263
S'19535295+7501411'
p2264
aS'19535003+7501299'
p2265
aa(lp2266
S'22270871+7751579'
p2267
aa(lp2268
S'20260528+5834224'
p2269
aa(lp2270
S'21172195+6402391'
p2271
aa(lp2272
S'15350514+6254557'
p2273
aa(lp2274
S'15235144+5828064'
p2275
aa(lp2276
S'09441580+4725546'
p2277
aa(lp2278
S'19241634+7533121'
p2279
aa(lp2280
S'00512872+6715553'
p2281
aa(lp2282
S'03360868+3118398'
p2283
aa(lp2284
S'21012062+3314280'
p2285
aS'21011610+3314328'
p2286
aa(lp2287
S'22011310+2818248'
p2288
aa(lp2289
S'15352566+6005077'
p2290
aa(lp2291
S'16164221+5839432'
p2292
aa(lp2293
S'10011109+8109226'
p2294
aa(lp2295
S'02312765+5722432'
p2296
aa(lp2297
S'08294949+2646348'
p2298
aa(lp2299
S'22404178+4435474'
p2300
aa(lp2301
S'08122656+4309289'
p2302
aa(lp2303
S'08372285+2612245'
p2304
aa(lp2305
S'10145315+2123464'
p2306
aa(lp2307
S'16352740+3500577'
p2308
aa(lp2309
S'01023797+6858251'
p2310
aa(lp2311
S'02271705+5432479'
p2312
aa(lp2313
S'04381255+2813001'
p2314
aa(lp2315
S'19311257+3607300'
p2316
aa(lp2317
S'21160576+2951511'
p2318
aS'21160378+2951460'
p2319
aa(lp2320
S'20403364+1529572'
p2321
aa(lp2322
S'22294885+4128479'
p2323
aa(lp2324
S'09172729+5601179'
p2325
aa(lp2326
S'10413809+3736397'
p2327
aa(lp2328
S'09184624+2645114'
p2329
aS'09184142+2645526'
p2330
aa(lp2331
S'07555396+8323049'
p2332
aa(lp2333
S'17335314+1655129'
p2334
aa(lp2335
S'09575798+1148287'
p2336
aa(lp2337
S'23545147+3831363'
p2338
aa(lp2339
S'04434289+6448304'
p2340
aa(lp2341
S'06022918+4951561'
p2342
aa(lp2343
S'10024246+1459127'
p2344
aa(lp2345
S'06575703+6219197'
p2346
aa(lp2347
S'07035565+5242075'
p2348
aa(lp2349
S'09003254+4635117'
p2350
aa(lp2351
S'07444018+0333089'
p2352
aa(lp2353
S'04063732+7916012'
p2354
aa(lp2355
S'06011106+5935508'
p2356
aa(lp2357
S'08490865+3936263'
p2358
aa(lp2359
S'06421118+0334527'
p2360
aa(lp2361
S'10253034+2623184'
p2362
aa(lp2363
S'11105149+4757021'
p2364
aa(lp2365
S'10512059+3607255'
p2366
aa(lp2367
S'09111312+0127181'
p2368
aS'09111270+0127347'
p2369
aa(lp2370
S'10051641+1703264'
p2371
aa(lp2372
S'09304457+0019214'
p2373
aa(lp2374
S'10073465+1514162'
p2375
aa(lp2376
S'10445504+3224233'
p2377
aS'10445269+3224411'
p2378
aa(lp2379
S'11470543+7001588'
p2380
aa(lp2381
S'12075799+7715009'
p2382
aa(lp2383
S'10494561+3532515'
p2384
aa(lp2385
S'23360774+3831393'
p2386
aa(lp2387
S'10024936+4827333'
p2388
aa(lp2389
S'04055746+7116411'
p2390
aS'04055651+7116385'
p2391
aa(lp2392
S'11052903+4331357'
p2393
aS'11053133+4331170'
p2394
aa(lp2395
S'03074682+2457555'
p2396
aa(lp2397
S'03364083+0329194'
p2398
aa(lp2399
S'10155390+1729271'
p2400
aa(lp2401
S'11003568+3728508'
p2402
aa(lp2403
S'10043793+2656457'
p2404
aa(lp2405
S'03524169+1701056'
p2406
aa(lp2407
S'11031000+3639085'
p2408
aa(lp2409
S'10151073+2841474'
p2410
aa(lp2411
S'09585650+0558000'
p2412
aa(lp2413
S'11193058+4641437'
p2414
aa(lp2415
S'18021660+6415445'
p2416
aa(lp2417
S'09370355+4034389'
p2418
aa(lp2419
S'16505794+2227058'
p2420
aa(lp2421
S'09191895+3831159'
p2422
aS'09191904+3831233'
p2423
aa(lp2424
S'08585112+3844260'
p2425
aa(lp2426
S'10490068+4745541'
p2427
aa(lp2428
S'10360869+1923314'
p2429
aa(lp2430
S'12052974+6932227'
p2431
aa(lp2432
S'08563034+4336037'
p2433
aa(lp2434
S'10590638+3015129'
p2435
aa(lp2436
S'10382981+4831449'
p2437
aa(lp2438
S'09520231+4055442'
p2439
aS'09513574+4043342'
p2440
aa(lp2441
S'11084947+3955129'
p2442
aa(lp2443
S'10132098+4647259'
p2444
aa(lp2445
S'10531134+4147073'
p2446
aS'10531056+4155387'
p2447
aa(lp2448
S'09455090+3521390'
p2449
aa(lp2450
S'09510459+3558098'
p2451
aa(lp2452
S'10372897+3011117'
p2453
aa(lp2454
S'09595217+0246494'
p2455
aa(lp2456
S'10471381+4026493'
p2457
aS'10471265+4026437'
p2458
aa(lp2459
S'10030191+3433197'
p2460
aa(lp2461
S'11250052+4319393'
p2462
aa(lp2463
S'10503825+5145016'
p2464
aa(lp2465
S'11115176+3332111'
p2466
aa(lp2467
S'10151387+4054386'
p2468
aa(lp2469
S'11224274+3755484'
p2470
aa(lp2471
S'10564633+3246278'
p2472
aa(lp2473
S'12125862+7416486'
p2474
aa(lp2475
S'16312806+4710212'
p2476
aa(lp2477
S'10473327+2007406'
p2478
aS'10473304+2007386'
p2479
aa(lp2480
S'10441882+1225117'
p2481
aa(lp2482
S'12122084+5429086'
p2483
aS'12122112+5429231'
p2484
aa(lp2485
S'10520440+1359509'
p2486
aa(lp2487
S'10323297+0630074'
p2488
aa(lp2489
S'10444608+0638478'
p2490
aa(lp2491
S'11032125+1337571'
p2492
aa(lp2493
S'11585947+4239395'
p2494
aS'11581760+4234292'
p2495
aa(lp2496
S'10562886+0700527'
p2497
aa(lp2498
S'21514831+1336154'
p2499
aa(lp2500
S'21044740+0732472'
p2501
aa(lp2502
S'11505787+4822395'
p2503
aa(lp2504
S'11213847+0608256'
p2505
aa(lp2506
S'11011965+0300171'
p2507
aa(lp2508
S'19213867+2052028'
p2509
aa(lp2510
S'18305241+1835596'
p2511
aa(lp2512
S'21172273+2053547'
p2513
aS'21172264+2053585'
p2514
aa(lp2515
S'13533877+7737083'
p2516
aa(lp2517
S'16524947+6304389'
p2518
aa(lp2519
S'16182094+7543081'
p2520
aa(lp2521
S'16402068+6736046'
p2522
aa(lp2523
S'11525791+2428454'
p2524
aa(lp2525
S'01031395+3140598'
p2526
aa(lp2527
S'18355181+8005394'
p2528
aa(lp2529
S'16102885+7354329'
p2530
aa(lp2531
S'02125458+0000167'
p2532
aa(lp2533
S'00074264+6022543'
p2534
aa(lp2535
S'16461742+6335100'
p2536
aa(lp2537
S'21465626+4638061'
p2538
aa(lp2539
S'19510930+4628598'
p2540
aa(lp2541
S'16533915+5603272'
p2542
aa(lp2543
S'17300615+5439318'
p2544
aa(lp2545
S'16510707+7809173'
p2546
aa(lp2547
S'22032128+6729596'
p2548
aa(lp2549
S'16304186+7009191'
p2550
aa(lp2551
S'17014590+7411513'
p2552
aa(lp2553
S'20231789+6710096'
p2554
aa(lp2555
S'17173857+5224227'
p2556
aa(lp2557
S'05482407+0745388'
p2558
aa(lp2559
S'17224300+6008212'
p2560
aS'17221841+5950039'
p2561
aa(lp2562
S'23435331+6102156'
p2563
aa(lp2564
S'07581269+4118134'
p2565
aa(lp2566
S'06170531+8353354'
p2567
aa(lp2568
S'08401597+3127068'
p2569
aa(lp2570
S'11285624+1010395'
p2571
aa(lp2572
S'10520326+0032383'
p2573
aa(lp2574
S'02333717+2455392'
p2575
aa(lp2576
S'03220410+0256346'
p2577
aa(lp2578
S'04121693+6443560'
p2579
aa(lp2580
S'11483548+0741403'
p2581
aa(lp2582
S'11474074+0015201'
p2583
aa(lp2584
S'18024624+3731048'
p2585
aa(lp2586
S'09160520+2919451'
p2587
aS'09160758+2908150'
p2588
aa(lp2589
S'12362870+3512007'
p2590
aa(lp2591
S'12041256+0514128'
p2592
aa(lp2593
S'12185939+1107338'
p2594
aa(lp2595
S'17243993+6147507'
p2596
aa(lp2597
S'13065025+3050549'
p2598
aa(lp2599
S'12004474+2050497'
p2600
aS'12003292+2048513'
p2601
aS'11595905+2105029'
p2602
aa(lp2603
S'13525060+6649064'
p2604
aa(lp2605
S'12412898+1905012'
p2606
aa(lp2607
S'12512393+2206149'
p2608
aS'12512880+2207054'
p2609
aa(lp2610
S'13101268+4745190'
p2611
aa(lp2612
S'14085027+7316300'
p2613
aa(lp2614
S'13220965+4144432'
p2615
aa(lp2616
S'10034606+5154485'
p2617
aa(lp2618
S'13412765+4854458'
p2619
aa(lp2620
S'10565972+0319332'
p2621
aa(lp2622
S'11451191+1820587'
p2623
aa(lp2624
S'11215542+2649511'
p2625
aa(lp2626
S'13163284+2752297'
p2627
aa(lp2628
S'12021818+2835142'
p2629
aa(lp2630
S'11432359+2518137'
p2631
aa(lp2632
S'18353790+3259545'
p2633
aa(lp2634
S'12394672+0410471'
p2635
aa(lp2636
S'18395990+3324538'
p2637
aa(lp2638
S'12141654+0037263'
p2639
aa(lp2640
S'13265801+1505436'
p2641
aa(lp2642
S'13140583+0353587'
p2643
aa(lp2644
S'13003350+0541081'
p2645
aa(lp2646
S'14170294+3142472'
p2647
aa(lp2648
S'14084272+2919039'
p2649
aa(lp2650
S'13180180+0214011'
p2651
aa(lp2652
S'17424147+7537187'
p2653
aa(lp2654
S'19315239+1906592'
p2655
aa(lp2656
S'13244086+0059327'
p2657
aa(lp2658
S'14222009+2352351'
p2659
aa(lp2660
S'13314666+2916368'
p2661
aa(lp2662
S'18144837+7843103'
p2663
aa(lp2664
S'13484861+0406022'
p2665
aa(lp2666
S'01195227+8409327'
p2667
aa(lp2668
S'13480916+0429169'
p2669
aa(lp2670
S'14542790+3532569'
p2671
aa(lp2672
S'13142039+1320011'
p2673
aa(lp2674
S'14295956+2934028'
p2675
aa(lp2676
S'14184045+1812080'
p2677
aS'14184107+1812205'
p2678
aa(lp2679
S'14533718+1134124'
p2680
aa(lp2681
S'13303106+1909340'
p2682
aa(lp2683
S'23574516+1946112'
p2684
aa(lp2685
S'22062259+1722206'
p2686
aa(lp2687
S'20081786+3318122'
p2688
aa(lp2689
S'19535443+4424541'
p2690
aS'19535508+4424550'
p2691
aa(lp2692
S'20510151+3955426'
p2693
aa(lp2694
S'14130286+0506321'
p2695
aa(lp2696
S'14153253+0439312'
p2697
aa(lp2698
S'14320849+0811313'
p2699
aa(lp2700
S'14192958+0254365'
p2701
aa(lp2702
S'15115602+1757175'
p2703
aa(lp2704
S'23160847+0644360'
p2705
aa(lp2706
S'20282202+3412087'
p2707
aa(lp2708
S'15235112+1727569'
p2709
aa(lp2710
S'22270280+0649324'
p2711
aa(lp2712
S'15210182+1151335'
p2713
aa(lp2714
S'20525817+4310240'
p2715
aa(lp2716
S'01115562+0455048'
p2717
aS'01115799+0454120'
p2718
aa(lp2719
S'20245077+7412244'
p2720
aa(lp2721
S'19405202+7831418'
p2722
aa(lp2723
S'16143285+1906101'
p2724
aa(lp2725
S'01065474+8027344'
p2726
aa(lp2727
S'15471513+0149218'
p2728
aa(lp2729
S'16463154+3434554'
p2730
aa(lp2731
S'23295502+2211442'
p2732
aa(lp2733
S'23385568+2101218'
p2734
aa(lp2735
S'16313507+1733494'
p2736
aa(lp2737
S'20402685+6500267'
p2738
aa(lp2739
S'23384176+3909262'
p2740
aa(lp2741
S'22133567+2558108'
p2742
aa(lp2743
S'03061700+1448413'
p2744
aa(lp2745
S'03103891+2540535'
p2746
aa(lp2747
S'13323908+3059065'
p2748
aa(lp2749
S'14511044+3106406'
p2750
aa(lp2751
S'15303032+0926014'
p2752
aa(lp2753
S'13225673+2428034'
p2754
aa(lp2755
S'05341513+1019142'
p2756
aa(lp2757
S'10020580+6945294'
p2758
aa(lp2759
S'13481341+2336486'
p2760
aa(lp2761
S'15352039+1743045'
p2762
aS'15352059+1742470'
p2763
aS'15345086+1800131'
p2764
aa(lp2765
S'02162977+1335136'
p2766
aa(lp2767
S'15100481+1921286'
p2768
aa(lp2769
S'14321078+1600494'
p2770
aa(lp2771
S'07362513+0704431'
p2772
aa(lp2773
S'14321453+4939058'
p2774
aa(lp2775
S'23163971+1937169'
p2776
aS'23172807+1936469'
p2777
aa(lp2778
S'23565485+2305089'
p2779
aS'23565510+2305033'
p2780
aS'23574410+2318169'
p2781
aa(lp2782
S'21473964+4507331'
p2783
aa(lp2784
S'21100351+6615021'
p2785
aa(lp2786
S'09002359+2150054'
p2787
aa(lp2788
S'18315610+7730367'
p2789
aa(lp2790
S'21112741+6553265'
p2791
aa(lp2792
S'16360563+0848491'
p2793
aa(lp2794
S'21232573+6734153'
p2795
aa(lp2796
S'18171509+6833199'
p2797
aa(lp2798
S'21280940+6321013'
p2799
aa(lp2800
S'08115757+0846220'
p2801
aa(lp2802
S'16024164+0131580'
p2803
aa(lp2804
S'16582531+1358106'
p2805
aa(lp2806
S'22160258+5439594'
p2807
aa(lp2808
S'21420844+5949240'
p2809
aa(lp2810
S'21470844+5309314'
p2811
aa(lp2812
S'22041904+4122552'
p2813
aa(lp2814
S'21104010+8242489'
p2815
aa(lp2816
S'22502051+5136265'
p2817
aa(lp2818
S'22071915+7349421'
p2819
aa(lp2820
S'23235980+2834037'
p2821
aa(lp2822
S'22474714+6623374'
p2823
aa(lp2824
S'22004701+7949254'
p2825
aa(lp2826
S'00232865+7711217'
p2827
aS'00233165+7711267'
p2828
aa(lp2829
S'17164779+1133523'
p2830
aa(lp2831
S'22475956+6749258'
p2832
aa(lp2833
S'16191111+0140411'
p2834
aa(lp2835
S'18351833+4544379'
p2836
aS'18352722+4545403'
p2837
aa(lp2838
S'22312286+7305475'
p2839
aa(lp2840
S'22582911+5705058'
p2841
aa(lp2842
S'16343937+0051089'
p2843
aS'16340737+0038043'
p2844
aa(lp2845
S'22503592+6146097'
p2846
aa(lp2847
S'18413741+3942123'
p2848
aa(lp2849
S'22175710+6935195'
p2850
aa(lp2851
S'23594940+4745447'
p2852
aa(lp2853
S'16340737+0038043'
p2854
aa(lp2855
S'22561257+6815287'
p2856
aa(lp2857
S'23472064+4238080'
p2858
aa(lp2859
S'23475557+2544176'
p2860
aa(lp2861
S'22552274+6949322'
p2862
aa(lp2863
S'22581508+6144266'
p2864
aa(lp2865
S'17460465+2439049'
p2866
aa(lp2867
S'19294419+7656502'
p2868
aS'19270905+7704327'
p2869
aa(lp2870
S'17210277+1258439'
p2871
aa(lp2872
S'00133880+8039569'
p2873
aS'00134305+8039494'
p2874
aa(lp2875
S'23495384+2721406'
p2876
aa(lp2877
S'00463565+3636397'
p2878
aa(lp2879
S'00485071+3551220'
p2880
aa(lp2881
S'00544803+2731035'
p2882
aa(lp2883
S'00464157+4851420'
p2884
aa(lp2885
S'00512409+4531308'
p2886
aa(lp2887
S'00490869+6205128'
p2888
aa(lp2889
S'07161207+3315154'
p2890
aS'07161802+3309103'
p2891
aa(lp2892
S'07580909+0717015'
p2893
aa(lp2894
S'07304280+4811599'
p2895
aa(lp2896
S'10125845+2113212'
p2897
aa(lp2898
S'10204406+0814234'
p2899
aS'10211908+0804268'
p2900
aa(lp2901
S'10252645+0512391'
p2902
aa(lp2903
S'10134420+0000395'
p2904
aa(lp2905
S'12322037+3135593'
p2906
aa(lp2907
S'15460441+0441311'
p2908
aa(lp2909
S'16325284+0950259'
p2910
aa(lp2911
S'17513078+1445306'
p2912
aa(lp2913
S'18145985+1939259'
p2914
aa(lp2915
S'18043871+1354143'
p2916
aa(lp2917
S'17574849+0441405'
p2918
aa(lp2919
S'18305421+1254029'
p2920
aa(lp2921
S'18351964+1415262'
p2922
aa(lp2923
S'18394841+1648497'
p2924
aa(lp2925
S'17235678+1338204'
p2926
aa(lp2927
S'01010685+2915330'
p2928
aa(lp2929
S'02021620+1020136'
p2930
aa(lp2931
S'01445851+1620396'
p2932
aa(lp2933
S'18163154+0452456'
p2934
aS'18165777+0441445'
p2935
aa(lp2936
S'18452294+1851585'
p2937
aa(lp2938
S'20054425+5258181'
p2939
aa(lp2940
S'18081215+1134467'
p2941
aa(lp2942
S'19081576+2635054'
p2943
aa(lp2944
S'18163938+0047136'
p2945
aa(lp2946
S'18584541+1504496'
p2947
aa(lp2948
S'07382951+2400088'
p2949
aa(lp2950
S'02532611+1724324'
p2951
aa(lp2952
S'00551459+4511019'
p2953
aa(lp2954
S'00554159+3533401'
p2955
aa(lp2956
S'01155017+4702023'
p2957
aa(lp2958
S'20345531+5917268'
p2959
aa(lp2960
S'01325459+2904559'
p2961
aa(lp2962
S'19484080+3555178'
p2963
aa(lp2964
S'01031442+7113127'
p2965
aa(lp2966
S'01025869+5304080'
p2967
aa(lp2968
S'19094165+0948584'
p2969
aa(lp2970
S'00304867+7742338'
p2971
aa(lp2972
S'20104015+4040085'
p2973
aa(lp2974
S'01131873+5118518'
p2975
aa(lp2976
S'19384372+3311352'
p2977
aa(lp2978
S'01355978+4138116'
p2979
aa(lp2980
S'02170993+3526330'
p2981
aa(lp2982
S'01192628+5450382'
p2983
aa(lp2984
S'19504653+2617522'
p2985
aa(lp2986
S'01212386+4647373'
p2987
aa(lp2988
S'01374851+3823318'
p2989
aa(lp2990
S'01282259+5211510'
p2991
aa(lp2992
S'05281459+0258142'
p2993
aa(lp2994
S'02053360+7240277'
p2995
aa(lp2996
S'08255285+6902016'
p2997
aa(lp2998
S'08410385+6739388'
p2999
aa(lp3000
S'06140240+5140081'
p3001
aa(lp3002
S'06052936+6049231'
p3003
aa(lp3004
S'03304890+5413551'
p3005
aa(lp3006
S'04325555+0006295'
p3007
aS'04325623+0006158'
p3008
aa(lp3009
S'05332312+1220551'
p3010
aS'05332300+1221152'
p3011
aa(lp3012
S'06315073+4129458'
p3013
aa(lp3014
S'06073185+4712266'
p3015
aa(lp3016
S'05593774+5835351'
p3017
aS'05595569+5834155'
p3018
aa(lp3019
S'11071955+0136016'
p3020
aa(lp3021
S'11123864+0338455'
p3022
aa(lp3023
S'11002033+5101418'
p3024
aa(lp3025
S'19103855+0132104'
p3026
aS'19103807+0132218'
p3027
aa(lp3028
S'20334173+3635582'
p3029
aa(lp3030
S'02553573+2652208'
p3031
aa(lp3032
S'02253841+3732339'
p3033
aa(lp3034
S'20000565+3057300'
p3035
aa(lp3036
S'19515545+1408235'
p3037
aa(lp3038
S'01341139+6459360'
p3039
aa(lp3040
S'08281269+2008228'
p3041
aa(lp3042
S'02123221+5006336'
p3043
aa(lp3044
S'04223199+1031188'
p3045
aa(lp3046
S'05420897+1229252'
p3047
aa(lp3048
S'20061613+1609213'
p3049
aS'20061995+1619510'
p3050
aa(lp3051
S'20331580+2823443'
p3052
aa(lp3053
S'19465134+1401218'
p3054
aa(lp3055
S'21144248+5344484'
p3056
aa(lp3057
S'03264495+1914402'
p3058
aa(lp3059
S'19245241+0427240'
p3060
aa(lp3061
S'20583388+4526045'
p3062
aa(lp3063
S'20312561+3833432'
p3064
aa(lp3065
S'20065316+1356242'
p3066
aa(lp3067
S'20111329+1611074'
p3068
aa(lp3069
S'19581470+0955038'
p3070
aa(lp3071
S'03584906+1230241'
p3072
aa(lp3073
S'03423180+1216225'
p3074
aS'03422933+1231368'
p3075
aa(lp3076
S'02133518+6354405'
p3077
aa(lp3078
S'20124300+1434108'
p3079
aa(lp3080
S'04171852+0849220'
p3081
aa(lp3082
S'20395068+2155558'
p3083
aS'20393499+2159225'
p3084
aa(lp3085
S'21024606+3454360'
p3086
aa(lp3087
S'03230175+4200269'
p3088
aa(lp3089
S'20232212+0800149'
p3090
aa(lp3091
S'20045709+0321076'
p3092
aa(lp3093
S'03172728+6403060'
p3094
aa(lp3095
S'03220945+7047486'
p3096
aa(lp3097
S'06490542+3706533'
p3098
aS'06484939+3708464'
p3099
aa(lp3100
S'03264491+7108292'
p3101
aa(lp3102
S'04341592+3449315'
p3103
aa(lp3104
S'06360639+1137032'
p3105
aa(lp3106
S'04010755+5123196'
p3107
aa(lp3108
S'04412388+3242227'
p3109
aa(lp3110
S'08593592+5343505'
p3111
aa(lp3112
S'07224202+3040119'
p3113
aa(lp3114
S'04231392+7144031'
p3115
aa(lp3116
S'03471888+5424500'
p3117
aa(lp3118
S'04111311+4931525'
p3119
aa(lp3120
S'04174431+4103137'
p3121
aa(lp3122
S'04195212+4233304'
p3123
aa(lp3124
S'04151193+3939239'
p3125
aa(lp3126
S'04274130+5935167'
p3127
aa(lp3128
S'07111138+4329590'
p3129
aa(lp3130
S'04192539+3815032'
p3131
aa(lp3132
S'04251914+3705083'
p3133
aa(lp3134
S'04165128+7410233'
p3135
aa(lp3136
S'04223348+3900436'
p3137
aa(lp3138
S'03305473+7041145'
p3139
aa(lp3140
S'08581519+1945470'
p3141
aS'08581267+1943486'
p3142
aS'08571541+1924177'
p3143
aa(lp3144
S'04402299+3126461'
p3145
aa(lp3146
S'04505083+2207224'
p3147
aa(lp3148
S'20533304+1037020'
p3149
aa(lp3150
S'21072444+1950522'
p3151
aa(lp3152
S'05102012+2714032'
p3153
aa(lp3154
S'22245593+5200190'
p3155
aa(lp3156
S'04492947+4828459'
p3157
aa(lp3158
S'21521179+2725001'
p3159
aa(lp3160
S'21371448+1650272'
p3161
aa(lp3162
S'21241927+0830064'
p3163
aa(lp3164
S'06214389+1619223'
p3165
aS'06213658+1618361'
p3166
aa(lp3167
S'23580162+7836301'
p3168
aS'23575233+7836458'
p3169
aa(lp3170
S'22155488+2321026'
p3171
aa(lp3172
S'05093508+7020298'
p3173
aa(lp3174
S'06101825+7212005'
p3175
aa(lp3176
S'05234546+6841138'
p3177
aS'05234701+6841453'
p3178
aa(lp3179
S'05304035+6854079'
p3180
aa(lp3181
S'06131090+5317546'
p3182
aa(lp3183
S'09005208+4825248'
p3184
aa(lp3185
S'06271281+4138143'
p3186
aa(lp3187
S'06415204+2328055'
p3188
aa(lp3189
S'21334913+0146561'
p3190
aa(lp3191
S'05544871+8005408'
p3192
aa(lp3193
S'21481022+0126425'
p3194
aa(lp3195
S'21450906+6147452'
p3196
aa(lp3197
S'22064638+0325037'
p3198
aa(lp3199
S'17092601+3909384'
p3200
aa(lp3201
S'06463385+7911508'
p3202
aa(lp3203
S'07223179+7305048'
p3204
aa(lp3205
S'07582273+4939533'
p3206
aa(lp3207
S'08173877+5459401'
p3208
aa(lp3209
S'08592936+2918186'
p3210
aa(lp3211
S'19165762+0509021'
p3212
aa(lp3213
S'07470583+7603195'
p3214
aa(lp3215
S'08002100+6455345'
p3216
aa(lp3217
S'08161025+5704482'
p3218
aa(lp3219
S'08212804+5220587'
p3220
aa(lp3221
S'09450859+7144511'
p3222
aa(lp3223
S'12555681+5055219'
p3224
aa(lp3225
S'13093495+2859065'
p3226
aa(lp3227
S'23512227+2344207'
p3228
aa(lp3229
S'23373601+1622031'
p3230
aa(lp3231
S'12545079+1159143'
p3232
aa(lp3233
S'00503319+2449009'
p3234
aa(lp3235
S'09254032+6329196'
p3236
aa(lp3237
S'10521423+0555098'
p3238
aa(lp3239
S'01053732+2829339'
p3240
aa(lp3241
S'01191709+5951220'
p3242
aa(lp3243
S'01230222+3559414'
p3244
aa(lp3245
S'10483255+1909022'
p3246
aa(lp3247
S'01401649+3147306'
p3248
aa(lp3249
S'17513557+3749347'
p3250
aa(lp3251
S'18455236+5227400'
p3252
aa(lp3253
S'00113182+5908400'
p3254
aa(lp3255
S'00202922+3305081'
p3256
aa(lp3257
S'00455663+3347109'
p3258
aa(lp3259
S'01112542+1526214'
p3260
aa(lp3261
S'04140201+8215360'
p3262
aa(lp3263
S'06022553+6620404'
p3264
aa(lp3265
S'05011802+2237015'
p3266
aa(lp3267
S'05083547+2025268'
p3268
aa(lp3269
S'05234899+2232397'
p3270
aa(lp3271
S'05292704+1534383'
p3272
aS'05292612+1534453'
p3273
aa(lp3274
S'20125995+0112584'
p3275
aa(lp3276
S'20432387+0445552'
p3277
aa(lp3278
S'20343301+0757349'
p3279
aa(lp3280
S'21274751+5505337'
p3281
aa(lp3282
S'23225384+7847386'
p3283
aS'23192447+7900037'
p3284
aa(lp3285
S'18523373+4538317'
p3286
aa(lp3287
S'19072214+0443554'
p3288
aa(lp3289
S'20411094+1800050'
p3290
aa(lp3291
S'22482247+1232105'
p3292
aa(lp3293
S'03263098+5908539'
p3294
aa(lp3295
S'02463486+1625115'
p3296
aa(lp3297
S'02221890+0124584'
p3298
aa(lp3299
S'03425325+2326495'
p3300
aa(lp3301
S'03090015+1001257'
p3302
aa(lp3303
S'03335132+0608424'
p3304
aa(lp3305
S'04240936+1505155'
p3306
aa(lp3307
S'04261992+0336359'
p3308
aa(lp3309
S'06235123+4540050'
p3310
aa(lp3311
S'23095781+5506472'
p3312
aa(lp3313
S'16531534+0000148'
p3314
aa(lp3315
S'18164895+0150039'
p3316
aa(lp3317
S'19253089+0938235'
p3318
aa(lp3319
S'20443743+1517352'
p3320
aa(lp3321
S'23174881+0108038'
p3322
aa(lp3323
S'00545356+1744574'
p3324
aa(lp3325
S'18400238+7240540'
p3326
aa(lp3327
S'01304311+0236369'
p3328
aa(lp3329
S'01435333+0014323'
p3330
aa(lp3331
S'03391532+5632058'
p3332
aa(lp3333
S'02480974+2704257'
p3334
aa(lp3335
S'03442081+0741549'
p3336
aa(lp3337
S'04164276+1310587'
p3338
aa(lp3339
S'05585333+2121010'
p3340
aa(lp3341
S'23254016+5308056'
p3342
aa(lp3343
S'22400144+0532162'
p3344
aa(lp3345
S'21024705+2237118'
p3346
aa(lp3347
S'18375371+0141191'
p3348
aa(lp3349
S'15254354+3112121'
p3350
aa(lp3351
S'23383392+0624518'
p3352
aa(lp3353
S'02155612+1015174'
p3354
aa(lp3355
S'02302486+1648262'
p3356
aa(lp3357
S'04434430+1505565'
p3358
aa(lp3359
S'06043887+0741545'
p3360
aa(lp3361
S'16041322+2331386'
p3362
aa(lp3363
S'16454331+0444397'
p3364
aa(lp3365
S'16103621+0947156'
p3366
aa(lp3367
S'19560021+0636094'
p3368
aa(lp3369
S'20442205+1339002'
p3370
aa(lp3371
S'22062976+0222320'
p3372
aa(lp3373
S'01584517+4049445'
p3374
aa(lp3375
S'02594633+3855363'
p3376
aa(lp3377
S'02364412+2240265'
p3378
aa(lp3379
S'02273126+1935260'
p3380
aa(lp3381
S'03251116+1300334'
p3382
aa(lp3383
S'04393163+1615447'
p3384
aa(lp3385
S'06083043+4902063'
p3386
aa(lp3387
S'05501099+0940011'
p3388
aa(lp3389
S'07410681+1738459'
p3390
aa(lp3391
S'03105861+7346189'
p3392
aa(lp3393
S'04201254+8454062'
p3394
aa(lp3395
S'04082371+6910593'
p3396
aa(lp3397
S'04302527+3951000'
p3398
aa(lp3399
S'04333393+2044461'
p3400
aa(lp3401
S'05554377+4650585'
p3402
aa(lp3403
S'06244132+2325585'
p3404
aa(lp3405
S'06293433+1742419'
p3406
aa(lp3407
S'07522390+1612157'
p3408
aa(lp3409
S'07385081+1829205'
p3410
aa(lp3411
S'08402975+1824091'
p3412
aa(lp3413
S'20442797+7141584'
p3414
aa(lp3415
S'22432313+2208179'
p3416
aa(lp3417
S'23270216+2710367'
p3418
aa(lp3419
S'16281707+1334204'
p3420
aa(lp3421
S'23354132+0611205'
p3422
aa(lp3423
S'01120002+1502170'
p3424
aa(lp3425
S'02124635+1032546'
p3426
aa(lp3427
S'02280987+0310575'
p3428
aa(lp3429
S'03040207+0045512'
p3430
aa(lp3431
S'03100340+0234269'
p3432
aa(lp3433
S'04343785+1906051'
p3434
aa(lp3435
S'05031607+2123563'
p3436
aS'05030563+2122362'
p3437
aa(lp3438
S'05405390+0854183'
p3439
aa(lp3440
S'08482967+6109057'
p3441
aa(lp3442
S'08505062+5253462'
p3443
aa(lp3444
S'08313759+1923395'
p3445
aS'08313744+1923494'
p3446
aa(lp3447
S'06363696+0619102'
p3448
aa(lp3449
S'06481555+0326243'
p3450
aa(lp3451
S'07111478+1027587'
p3452
aa(lp3453
S'17532059+0758274'
p3454
aa(lp3455
S'17361766+1346225'
p3456
aa(lp3457
S'18533112+2022357'
p3458
aa(lp3459
S'17554987+3842132'
p3460
aa(lp3461
S'17274007+1429027'
p3462
aa(lp3463
S'18373180+2030424'
p3464
aa(lp3465
S'21144910+1254002'
p3466
aa(lp3467
S'08303256+0947153'
p3468
aa(lp3469
S'02541919+6427401'
p3470
aa(lp3471
S'20414744+4938482'
p3472
aa(lp3473
S'19224090+2926025'
p3474
aa(lp3475
S'17204621+4915221'
p3476
aa(lp3477
S'17415439+0940537'
p3478
aa(lp3479
S'01534955+4427284'
p3480
aa(lp3481
S'02113830+0803506'
p3482
aa(lp3483
S'01533076+0147559'
p3484
aa(lp3485
S'03205965+1854233'
p3486
aa(lp3487
S'04092226+0546268'
p3488
aa(lp3489
S'18331476+2219177'
p3490
aa(lp3491
S'18461048+1713265'
p3492
aa(lp3493
S'08583481+0758555'
p3494
aa(lp3495
S'09093872+0826162'
p3496
aa(lp3497
S'16063390+4054216'
p3498
aa(lp3499
S'07355465+3333459'
p3500
aa(lp3501
S'20422906+2310130'
p3502
aa(lp3503
S'10570380+2217203'
p3504
aa(lp3505
S'17114604+4029014'
p3506
aa(lp3507
S'20484848+5818321'
p3508
aa(lp3509
S'21583457+6117060'
p3510
aa(lp3511
S'18124242+2536013'
p3512
aa(lp3513
S'20381609+6349369'
p3514
aa(lp3515
S'10540048+1606059'
p3516
aa(lp3517
S'11230800+2553370'
p3518
aa(lp3519
S'11005043+1204108'
p3520
aa(lp3521
S'10580571+0633563'
p3522
aS'10580575+0633476'
p3523
aa(lp3524
S'19421000+6538298'
p3525
aa(lp3526
S'11052425+5005414'
p3527
aa(lp3528
S'09092591+4939295'
p3529
aa(lp3530
S'21013344+3957037'
p3531
aa(lp3532
S'22180963+5243471'
p3533
aa(lp3534
S'12090663+4735348'
p3535
aS'12090660+4736053'
p3536
aa(lp3537
S'08332512+1831459'
p3538
aa(lp3539
S'11300628+4848234'
p3540
aa(lp3541
S'10463343+1906373'
p3542
aa(lp3543
S'01224500+0032042'
p3544
aa(lp3545
S'17321950+2355184'
p3546
aa(lp3547
S'11000752+2114505'
p3548
aa(lp3549
S'13142389+6622328'
p3550
aa(lp3551
S'11280167+3254524'
p3552
aa(lp3553
S'09324827+2659443'
p3554
aa(lp3555
S'18423724+3111062'
p3556
aa(lp3557
S'00550514+1439045'
p3558
aa(lp3559
S'05574866+0048025'
p3560
aa(lp3561
S'09351507+1520463'
p3562
aa(lp3563
S'09202188+2643434'
p3564
aa(lp3565
S'18320290+2030581'
p3566
aa(lp3567
S'10574650+0453319'
p3568
aa(lp3569
S'11484948+1856542'
p3570
aa(lp3571
S'11280702+0141304'
p3572
aa(lp3573
S'05553087+0124118'
p3574
aa(lp3575
S'18393308+2952164'
p3576
aa(lp3577
S'18261131+3014201'
p3578
aa(lp3579
S'19122805+3826161'
p3580
aa(lp3581
S'12351726+1318054'
p3582
aa(lp3583
S'11535267+0659561'
p3584
aa(lp3585
S'12575085+3759506'
p3586
aa(lp3587
S'12125146+1125556'
p3588
aa(lp3589
S'13112163+2832419'
p3590
aa(lp3591
S'12212705+3038357'
p3592
aS'12212673+3038376'
p3593
aa(lp3594
S'12543209+4459351'
p3595
aa(lp3596
S'12033627+7907005'
p3597
aS'11573418+7927024'
p3598
aa(lp3599
S'18432213+4040209'
p3600
aa(lp3601
S'19194106+4127490'
p3602
aa(lp3603
S'12422747+1341401'
p3604
aa(lp3605
S'22583200+1014589'
p3606
aa(lp3607
S'23084449+0335111'
p3608
aa(lp3609
S'20492745+3336512'
p3610
aa(lp3611
S'19451248+4043183'
p3612
aa(lp3613
S'19375302+2115348'
p3614
aa(lp3615
S'18414791+2421595'
p3616
aa(lp3617
S'20103444+0632140'
p3618
aa(lp3619
S'17392843+6928026'
p3620
aa(lp3621
S'12460939+0706248'
p3622
aa(lp3623
S'18514525+2641569'
p3624
aa(lp3625
S'13411167+3001259'
p3626
aa(lp3627
S'19173151+2833147'
p3628
aa(lp3629
S'17573564+5025283'
p3630
aa(lp3631
S'21440795+1704372'
p3632
aS'21440900+1703348'
p3633
aa(lp3634
S'19260160+2426170'
p3635
aa(lp3636
S'12592403+0743551'
p3637
aa(lp3638
S'11035418+2417483'
p3639
aa(lp3640
S'11124232+7626563'
p3641
aa(lp3642
S'02024428+1334335'
p3643
aa(lp3644
S'02221455+4542011'
p3645
aa(lp3646
S'14093200+4138080'
p3647
aa(lp3648
S'14460062+4633251'
p3649
aa(lp3650
S'13221937+3902389'
p3651
aa(lp3652
S'12044200+7603423'
p3653
aa(lp3654
S'14224340+1624464'
p3655
aa(lp3656
S'14231683+1318096'
p3657
aa(lp3658
S'14280419+1356137'
p3659
aa(lp3660
S'20485102+1127201'
p3661
aa(lp3662
S'14562776+1755090'
p3663
aS'14562713+1755001'
p3664
aa(lp3665
S'19564281+4149230'
p3666
aa(lp3667
S'14132052+0023047'
p3668
aa(lp3669
S'15185835+2147521'
p3670
aa(lp3671
S'01242326+6819312'
p3672
aa(lp3673
S'22301982+0410114'
p3674
aa(lp3675
S'13115179+2520507'
p3676
aa(lp3677
S'13593541+2635316'
p3678
aa(lp3679
S'14141521+2847249'
p3680
aa(lp3681
S'14441717+3002145'
p3682
aa(lp3683
S'15343054+1416181'
p3684
aa(lp3685
S'07343908+2220156'
p3686
aS'07335273+2223345'
p3687
aa(lp3688
S'20434307+5509469'
p3689
aS'20431920+5520521'
p3690
aa(lp3691
S'22244238+2230425'
p3692
aa(lp3693
S'14205545+1218068'
p3694
aa(lp3695
S'14234378+1426515'
p3696
aa(lp3697
S'23015693+7611419'
p3698
aa(lp3699
S'08055713+0417035'
p3700
aa(lp3701
S'14305591+0858023'
p3702
aa(lp3703
S'16163158+0725584'
p3704
aa(lp3705
S'08021516+0326482'
p3706
aS'08022064+0319434'
p3707
aS'08022287+0320196'
p3708
aa(lp3709
S'01261945+3005201'
p3710
aa(lp3711
S'01063072+3017112'
p3712
aa(lp3713
S'01040745+3259108'
p3714
aa(lp3715
S'02103543+4642060'
p3716
aa(lp3717
S'00590734+4102232'
p3718
aa(lp3719
S'02102286+6809317'
p3720
aa(lp3721
S'03544620+2416246'
p3722
aa(lp3723
S'03141241+2840411'
p3724
aa(lp3725
S'03571999+4107426'
p3726
aa(lp3727
S'04422656+2012314'
p3728
aa(lp3729
S'04123491+3529592'
p3730
aa(lp3731
S'05165345+5640195'
p3732
aa(lp3733
S'14205309+3657167'
p3734
aa(lp3735
S'18593888+0829005'
p3736
aa(lp3737
S'16370146+3535456'
p3738
aa(lp3739
S'03090467+0031126'
p3740
aa(lp3741
S'02514973+2929131'
p3742
aa(lp3743
S'21062171+5503114'
p3744
aa(lp3745
S'04192083+0436503'
p3746
aa(lp3747
S'02454119+4457030'
p3748
aS'02453963+4456557'
p3749
aa(lp3750
S'02544773+3426426'
p3751
aa(lp3752
S'04364910+0451109'
p3753
aa(lp3754
S'04284963+0728355'
p3755
aa(lp3756
S'04185291+0315135'
p3757
aa(lp3758
S'02484336+4143324'
p3759
aa(lp3760
S'02252626+6229583'
p3761
aa(lp3762
S'04325623+0006158'
p3763
aS'04325555+0006295'
p3764
aS'04325550+0006345'
p3765
aa(lp3766
S'03000272+6251582'
p3767
aa(lp3768
S'04523448+4042255'
p3769
aa(lp3770
S'07464203+5726534'
p3771
aa(lp3772
S'04122173+1615033'
p3773
aa(lp3774
S'03410645+2743363'
p3775
aa(lp3776
S'04485783+3648237'
p3777
aa(lp3778
S'07221747+0851566'
p3779
aa(lp3780
S'21243234+4003599'
p3781
aa(lp3782
S'05053461+4648017'
p3783
aa(lp3784
S'05565722+1144333'
p3785
aa(lp3786
S'21475251+5014479'
p3787
aa(lp3788
S'05381212+5216042'
p3789
aa(lp3790
S'08242681+2555366'
p3791
aa(lp3792
S'08511763+4606023'
p3793
aa(lp3794
S'23462781+7434098'
p3795
aa(lp3796
S'22344716+2757542'
p3797
aa(lp3798
S'21055892+4633386'
p3799
aa(lp3800
S'07064049+2625001'
p3801
aa(lp3802
S'06405810+4944304'
p3803
aa(lp3804
S'07073776+4841138'
p3805
aa(lp3806
S'21433489+5843200'
p3807
aa(lp3808
S'07101359+3740104'
p3809
aa(lp3810
S'08201297+0920152'
p3811
aa(lp3812
S'23212187+4338072'
p3813
aa(lp3814
S'22541111+2527562'
p3815
aa(lp3816
S'23211303+3023093'
p3817
aa(lp3818
S'06414901+6846395'
p3819
aa(lp3820
S'07294823+4113276'
p3821
aa(lp3822
S'07384719+4925272'
p3823
aa(lp3824
S'07454039+4931488'
p3825
aa(lp3826
S'07332208+4354284'
p3827
aa(lp3828
S'00085512+4918561'
p3829
aa(lp3830
S'08550658+5251283'
p3831
aa(lp3832
S'09321690+2209406'
p3833
aa(lp3834
S'11202775+1953286'
p3835
aa(lp3836
S'20372081+2156525'
p3837
aS'20372402+2156260'
p3838
aa(lp3839
S'07291859+7554033'
p3840
aa(lp3841
S'23402220+3433143'
p3842
aa(lp3843
S'23360750+1051542'
p3844
aa(lp3845
S'09535785+2236475'
p3846
aa(lp3847
S'07274829+8020089'
p3848
aa(lp3849
S'08301023+5552503'
p3850
aa(lp3851
S'09245082+3041373'
p3852
aa(lp3853
S'09500916+3052140'
p3854
aa(lp3855
S'10070422+3526564'
p3856
aa(lp3857
S'01370716+4216122'
p3858
aa(lp3859
S'10111362+3704003'
p3860
aa(lp3861
S'12442278+0421233'
p3862
aa(lp3863
S'00563841+1727347'
p3864
aa(lp3865
S'10163470+2751497'
p3866
aa(lp3867
S'10043109+3947154'
p3868
aa(lp3869
S'10054982+3759046'
p3870
aa(lp3871
S'01031311+1556178'
p3872
aa(lp3873
S'01112349+1648308'
p3874
aa(lp3875
S'01411566+3016111'
p3876
aa(lp3877
S'13505181+3644168'
p3878
aa(lp3879
S'01490157+2512180'
p3880
aa(lp3881
S'12211284+0031320'
p3882
aa(lp3883
S'02273726+4710045'
p3884
aa(lp3885
S'02195603+5919273'
p3886
aa(lp3887
S'11475067+7426430'
p3888
aa(lp3889
S'01530998+1248057'
p3890
aa(lp3891
S'02115966+3221471'
p3892
aa(lp3893
S'01512417+2123399'
p3894
aa(lp3895
S'12521285+2908568'
p3896
aS'12510399+2917567'
p3897
aa(lp3898
S'02310452+5245245'
p3899
aa(lp3900
S'23135055+0155321'
p3901
aa(lp3902
S'19565107+7202477'
p3903
aa(lp3904
S'00433851+7545152'
p3905
aa(lp3906
S'01015952+5410577'
p3907
aa(lp3908
S'03035573+6119318'
p3909
aa(lp3910
S'02053772+5944510'
p3911
aa(lp3912
S'03574059+8155250'
p3913
aa(lp3914
S'03434334+7253489'
p3915
aa(lp3916
S'06540842+3720474'
p3917
aa(lp3918
S'07291278+1723126'
p3919
aa(lp3920
S'06372430+7406207'
p3921
aa(lp3922
S'09192021+2154324'
p3923
aa(lp3924
S'08212368+0749045'
p3925
aa(lp3926
S'06521660+6246587'
p3927
aa(lp3928
S'06423957+6402372'
p3929
aa(lp3930
S'23241145+2543505'
p3931
aa(lp3932
S'23454076+4942300'
p3933
aa(lp3934
S'20194986+3554192'
p3935
aa(lp3936
S'21023608+4220399'
p3937
aa(lp3938
S'23171391+6256120'
p3939
aa(lp3940
S'06102245+2234207'
p3941
aa(lp3942
S'22091894+6410113'
p3943
aa(lp3944
S'05325194+3349474'
p3945
aa(lp3946
S'08042022+1501447'
p3947
aa(lp3948
S'08462980+2645574'
p3949
aa(lp3950
S'10451481+4941301'
p3951
aa(lp3952
S'19124504+3943223'
p3953
aa(lp3954
S'21544073+4443170'
p3955
aa(lp3956
S'19541829+1738289'
p3957
aa(lp3958
S'21082430+5427520'
p3959
aa(lp3960
S'20551860+2056063'
p3961
aa(lp3962
S'22522976+0954042'
p3963
aa(lp3964
S'23505402+3829334'
p3965
aa(lp3966
S'18300163+4806158'
p3967
aa(lp3968
S'22291092+5456509'
p3969
aa(lp3970
S'22081254+1036420'
p3971
aa(lp3972
S'08072607+3213101'
p3973
aa(lp3974
S'07492173+0839057'
p3975
aa(lp3976
S'08241203+0919590'
p3977
aa(lp3978
S'08252497+0623437'
p3979
aa(lp3980
S'07313844+1644034'
p3981
aa(lp3982
S'09595607+2002347'
p3983
aa(lp3984
S'10233542+5301584'
p3985
aa(lp3986
S'01081230+0027563'
p3987
aa(lp3988
S'23292501+4626370'
p3989
aa(lp3990
S'21573509+5026323'
p3991
aa(lp3992
S'18134117+2105404'
p3993
aa(lp3994
S'01340099+6530537'
p3995
aa(lp3996
S'20321008+6018152'
p3997
aa(lp3998
S'22343196+1958137'
p3999
aa(lp4000
S'23310587+0842314'
p4001
aa(lp4002
S'21034353+1716488'
p4003
aa(lp4004
S'00590821+3752399'
p4005
aa(lp4006
S'21551378+4251480'
p4007
aS'21535875+4235332'
p4008
aa(lp4009
S'18154756+8323295'
p4010
aa(lp4011
S'08313011+7303459'
p4012
aa(lp4013
S'09084885+1151411'
p4014
aa(lp4015
S'07332760+4130036'
p4016
aa(lp4017
S'23571871+1045096'
p4018
aa(lp4019
S'21012481+2043377'
p4020
aa(lp4021
S'19471849+5942544'
p4022
aa(lp4023
S'19081153+2839105'
p4024
aa(lp4025
S'19294856+6835385'
p4026
aS'19314024+6843427'
p4027
aa(lp4028
S'20225618+1040506'
p4029
aa(lp4030
S'21451241+4225454'
p4031
aa(lp4032
S'21272531+5553150'
p4033
aa(lp4034
S'23115353+5032147'
p4035
aa(lp4036
S'20554908+6144314'
p4037
aa(lp4038
S'23390212+5937354'
p4039
aa(lp4040
S'22341949+3334225'
p4041
aa(lp4042
S'06323060+6406207'
p4043
aa(lp4044
S'05132334+5224298'
p4045
aa(lp4046
S'06441792+4128179'
p4047
aa(lp4048
S'07170893+4545542'
p4049
aa(lp4050
S'06405199+1543220'
p4051
aS'06412818+1545482'
p4052
aa(lp4053
S'06195743+2022197'
p4054
aa(lp4055
S'23070962+4647099'
p4056
aa(lp4057
S'19202762+2743037'
p4058
aa(lp4059
S'21215764+1549393'
p4060
aa(lp4061
S'21375023+5304490'
p4062
aS'21381698+5257188'
p4063
aa(lp4064
S'23480312+4900573'
p4065
aa(lp4066
S'19064553+6356401'
p4067
aa(lp4068
S'23134727+2117294'
p4069
aa(lp4070
S'01020951+1009028'
p4071
aa(lp4072
S'20252724+5433327'
p4073
aS'20252445+5433458'
p4074
aa(lp4075
S'19432369+5433373'
p4076
aS'19431957+5433455'
p4077
aa(lp4078
S'20081816+6359486'
p4079
aa(lp4080
S'04591828+5735007'
p4081
aa(lp4082
S'05054061+5628404'
p4083
aa(lp4084
S'22290491+2600488'
p4085
aa(lp4086
S'06503427+5059518'
p4087
aa(lp4088
S'08385166+5029445'
p4089
aa(lp4090
S'07464256+2000321'
p4091
aa(lp4092
S'09085078+5407183'
p4093
aa(lp4094
S'07043449+1657273'
p4095
aa(lp4096
S'20452209+3508146'
p4097
aa(lp4098
S'20191604+6420385'
p4099
aa(lp4100
S'16421503+4159431'
p4101
aa(lp4102
S'17480236+7436562'
p4103
aa(lp4104
S'17391961+0103069'
p4105
aa(lp4106
S'23102392+6134222'
p4107
aa(lp4108
S'02230214+0245272'
p4109
aa(lp4110
S'00085391+2050252'
p4111
aa(lp4112
S'23535942+2828149'
p4113
aa(lp4114
S'00115302+2259047'
p4115
aa(lp4116
S'01421847+6147041'
p4117
aa(lp4118
S'07335230+6724235'
p4119
aa(lp4120
S'07411976+6718444'
p4121
aa(lp4122
S'06305733+6721177'
p4123
aa(lp4124
S'07065458+7218317'
p4125
aa(lp4126
S'00175789+3028102'
p4127
aa(lp4128
S'08161874+5002534'
p4129
aa(lp4130
S'09395610+4356577'
p4131
aa(lp4132
S'08215702+1748558'
p4133
aa(lp4134
S'08481345+2206506'
p4135
aa(lp4136
S'19084251+2733453'
p4137
aa(lp4138
S'19200810+6259165'
p4139
aa(lp4140
S'16341463+5344142'
p4141
aa(lp4142
S'16103040+3954258'
p4143
aa(lp4144
S'19544996+1626050'
p4145
aa(lp4146
S'01523081+6021082'
p4147
aa(lp4148
S'17352834+3654562'
p4149
aa(lp4150
S'01202841+3302388'
p4151
aa(lp4152
S'02162815+5823287'
p4153
aa(lp4154
S'06443003+7206516'
p4155
aa(lp4156
S'07023044+2154310'
p4157
aa(lp4158
S'09332037+7847027'
p4159
aa(lp4160
S'08362953+2254446'
p4161
aa(lp4162
S'07132210+2303582'
p4163
aa(lp4164
S'07262962+1411331'
p4165
aa(lp4166
S'08121869+2158480'
p4167
aa(lp4168
S'08344190+4529069'
p4169
aa(lp4170
S'16510995+3555071'
p4171
aa(lp4172
S'16492028+5101177'
p4173
aa(lp4174
S'21515342+4635155'
p4175
aa(lp4176
S'19505984+2009559'
p4177
aa(lp4178
S'18163460+2021585'
p4179
aa(lp4180
S'01144035+4428465'
p4181
aa(lp4182
S'21024776+1840463'
p4183
aa(lp4184
S'23440068+2242027'
p4185
aa(lp4186
S'17300207+8444159'
p4187
aa(lp4188
S'22501905+1944571'
p4189
aa(lp4190
S'19065426+2354140'
p4191
aa(lp4192
S'01093124+2137439'
p4193
aa(lp4194
S'02410716+5423087'
p4195
aa(lp4196
S'06195048+6605308'
p4197
aa(lp4198
S'07165156+2528292'
p4199
aa(lp4200
S'08460547+3813518'
p4201
aa(lp4202
S'10020745+4957438'
p4203
aa(lp4204
S'20383293+1455337'
p4205
aa(lp4206
S'16041654+4009193'
p4207
aa(lp4208
S'20275268+5603231'
p4209
aa(lp4210
S'22124289+6421119'
p4211
aa(lp4212
S'20052353+3813471'
p4213
aa(lp4214
S'22152409+4224066'
p4215
aa(lp4216
S'22102185+4250576'
p4217
aa(lp4218
S'01001387+3404055'
p4219
aa(lp4220
S'01451894+5403333'
p4221
aa(lp4222
S'05061831+6402239'
p4223
aa(lp4224
S'07003840+3334581'
p4225
aa(lp4226
S'07302916+6247270'
p4227
aa(lp4228
S'07250517+0637264'
p4229
aa(lp4230
S'17351296+2634475'
p4231
aa(lp4232
S'15270454+6136505'
p4233
aa(lp4234
S'17545806+3236563'
p4235
aa(lp4236
S'17492111+1804241'
p4237
aa(lp4238
S'17071260+4136445'
p4239
aa(lp4240
S'15480367+5939012'
p4241
aa(lp4242
S'01223428+5405275'
p4243
aa(lp4244
S'01454661+6058195'
p4245
aa(lp4246
S'01415502+3843267'
p4247
aa(lp4248
S'02071032+6417114'
p4249
aa(lp4250
S'01381723+2849124'
p4251
aa(lp4252
S'22225080+2801475'
p4253
aa(lp4254
S'19562433+5159554'
p4255
aa(lp4256
S'20563499+7632473'
p4257
aS'20580608+7648562'
p4258
aa(lp4259
S'08264732+0250119'
p4260
aa(lp4261
S'10191695+6549570'
p4262
aa(lp4263
S'21074673+1125039'
p4264
aa(lp4265
S'01583472+4602078'
p4266
aa(lp4267
S'23580298+0443178'
p4268
aa(lp4269
S'01475188+1052189'
p4270
aa(lp4271
S'22121323+4302389'
p4272
aa(lp4273
S'08330310+3706083'
p4274
aa(lp4275
S'08034469+0827000'
p4276
aa(lp4277
S'19430726+4518089'
p4278
aa(lp4279
S'18362811+5601270'
p4280
aa(lp4281
S'22162501+1952591'
p4282
aa(lp4283
S'17543768+2156007'
p4284
aa(lp4285
S'21103915+5016127'
p4286
aa(lp4287
S'16503451+5202034'
p4288
aa(lp4289
S'16580333+6436372'
p4290
aa(lp4291
S'17580020+3157269'
p4292
aa(lp4293
S'17234876+3142508'
p4294
aa(lp4295
S'18405881+7557592'
p4296
aa(lp4297
S'01151899+2908412'
p4298
aa(lp4299
S'05021937+6109374'
p4300
aa(lp4301
S'23541048+5141099'
p4302
aa(lp4303
S'01361774+2940545'
p4304
aa(lp4305
S'20384446+1720026'
p4306
aa(lp4307
S'02334654+7109331'
p4308
aa(lp4309
S'23080333+2232510'
p4310
aa(lp4311
S'20032324+6716487'
p4312
aa(lp4313
S'08185301+2127034'
p4314
aa(lp4315
S'20584898+5115421'
p4316
aa(lp4317
S'19244203+2326249'
p4318
aa(lp4319
S'02081238+1508443'
p4320
aS'02081218+1508424'
p4321
aa(lp4322
S'23082543+4813393'
p4323
aa(lp4324
S'01113637+4127530'
p4325
aa(lp4326
S'01461956+6005552'
p4327
aa(lp4328
S'07140394+3702459'
p4329
aa(lp4330
S'07473462+4807300'
p4331
aS'07473239+4808438'
p4332
aa(lp4333
S'09014988+0905110'
p4334
aa(lp4335
S'04125880+5236421'
p4336
aa(lp4337
S'04131016+5031414'
p4338
aa(lp4339
S'17163091+6939501'
p4340
aa(lp4341
S'17281148+7108266'
p4342
aa(lp4343
S'17052530+3158174'
p4344
aa(lp4345
S'18444236+3633445'
p4346
aa(lp4347
S'20282717+3732103'
p4348
aa(lp4349
S'19560585+2205242'
p4350
aa(lp4351
S'02482042+2352191'
p4352
aa(lp4353
S'18021429+8314005'
p4354
aa(lp4355
S'18445350+7408555'
p4356
aa(lp4357
S'01011867+3832302'
p4358
aa(lp4359
S'21454431+2046476'
p4360
aa(lp4361
S'01221027+2209032'
p4362
aa(lp4363
S'01560109+5551280'
p4364
aa(lp4365
S'02340001+4146489'
p4366
aa(lp4367
S'02571820+7633113'
p4368
aa(lp4369
S'03061500+1205548'
p4370
aS'03053124+1149563'
p4371
aS'03053063+1149356'
p4372
aa(lp4373
S'04414691+6217082'
p4374
aa(lp4375
S'00155531+5829389'
p4376
aa(lp4377
S'03430207+4554181'
p4378
aa(lp4379
S'23532243+5213437'
p4380
aa(lp4381
S'08392523+2953177'
p4382
aa(lp4383
S'17263583+2031252'
p4384
aa(lp4385
S'21230657+2901350'
p4386
aa(lp4387
S'20291183+2341452'
p4388
aa(lp4389
S'22255120+3148504'
p4390
aa(lp4391
S'17411611+7226320'
p4392
aa(lp4393
S'23083445+2920449'
p4394
aa(lp4395
S'23081546+0440023'
p4396
aa(lp4397
S'22334785+3547473'
p4398
aa(lp4399
S'17215464+2125468'
p4400
aa(lp4401
S'16252420+4854154'
p4402
aa(lp4403
S'18562628+4622532'
p4404
aa(lp4405
S'19574537+5658141'
p4406
aa(lp4407
S'03062619+1713292'
p4408
aa(lp4409
S'19071270+4416070'
p4410
aa(lp4411
S'02050121+3235460'
p4412
aa(lp4413
S'02104908+3359410'
p4414
aa(lp4415
S'03043219+4318259'
p4416
aa(lp4417
S'03305285+5627325'
p4418
aa(lp4419
S'08233688+6413378'
p4420
aa(lp4421
S'09034295+5202526'
p4422
aa(lp4423
S'09411195+3315060'
p4424
aa(lp4425
S'08500681+5217307'
p4426
aa(lp4427
S'16151006+3151495'
p4428
aa(lp4429
S'17373648+2205510'
p4430
aa(lp4431
S'17204248+4205070'
p4432
aa(lp4433
S'15421432+6533122'
p4434
aS'15421300+6537051'
p4435
aa(lp4436
S'16114959+5821458'
p4437
aa(lp4438
S'17310397+3504074'
p4439
aa(lp4440
S'17033134+3725442'
p4441
aa(lp4442
S'02070382+4938441'
p4443
aS'02081366+4949023'
p4444
aa(lp4445
S'02100486+3525504'
p4446
aa(lp4447
S'02032864+2134168'
p4448
aa(lp4449
S'03070089+3217365'
p4450
aa(lp4451
S'21005978+5103147'
p4452
aa(lp4453
S'08555454+4630541'
p4454
aa(lp4455
S'13021649+8706581'
p4456
aa(lp4457
S'09140220+4820417'
p4458
aa(lp4459
S'09092391+4006059'
p4460
aa(lp4461
S'18502574+1744507'
p4462
aa(lp4463
S'17314518+3056054'
p4464
aa(lp4465
S'17302797+5242593'
p4466
aa(lp4467
S'17322865+1023014'
p4468
aa(lp4469
S'16365595+2724223'
p4470
aa(lp4471
S'21053772+4959257'
p4472
aa(lp4473
S'17272691+4051048'
p4474
aa(lp4475
S'21541201+2247567'
p4476
aa(lp4477
S'02145978+1725089'
p4478
aa(lp4479
S'00125716+5059173'
p4480
aa(lp4481
S'19084837+2544137'
p4482
aa(lp4483
S'01453374+5555328'
p4484
aa(lp4485
S'01363862+4500152'
p4486
aa(lp4487
S'01442564+5332576'
p4488
aa(lp4489
S'01564996+4142303'
p4490
aa(lp4491
S'02000741+3639481'
p4492
aa(lp4493
S'02191746+2456381'
p4494
aa(lp4495
S'02255447+1746467'
p4496
aa(lp4497
S'02334741+1500173'
p4498
aa(lp4499
S'02292575+2624080'
p4500
aa(lp4501
S'02572132+4907335'
p4502
aa(lp4503
S'07551206+5257540'
p4504
aa(lp4505
S'08522515+3809245'
p4506
aa(lp4507
S'18023393+3630459'
p4508
aa(lp4509
S'17502719+4554041'
p4510
aa(lp4511
S'17472620+2840442'
p4512
aa(lp4513
S'17283039+3727074'
p4514
aa(lp4515
S'22432928+4555150'
p4516
aa(lp4517
S'05020507+6827253'
p4518
aa(lp4519
S'01564570+3033288'
p4520
aa(lp4521
S'19521826+5455564'
p4522
aa(lp4523
S'02121687+1131017'
p4524
aa(lp4525
S'02250452+3357485'
p4526
aa(lp4527
S'02523392+2504370'
p4528
aS'02523297+2504505'
p4529
aa(lp4530
S'22052140+5348415'
p4531
aa(lp4532
S'09133995+1859142'
p4533
aa(lp4534
S'08412779+6422281'
p4535
aa(lp4536
S'09202135+3221478'
p4537
aa(lp4538
S'18080290+3200426'
p4539
aa(lp4540
S'17454801+5853189'
p4541
aa(lp4542
S'17565213+1905558'
p4543
aa(lp4544
S'18033650+1241000'
p4545
aa(lp4546
S'17553340+5824269'
p4547
aa(lp4548
S'16045252+4827417'
p4549
aa(lp4550
S'17302672+3344522'
p4551
aa(lp4552
S'15335872+6441210'
p4553
aa(lp4554
S'16572294+1328092'
p4555
aa(lp4556
S'21143010+4250197'
p4557
aa(lp4558
S'21415843+2741150'
p4559
aa(lp4560
S'22141765+2534066'
p4561
aa(lp4562
S'21183833+5343067'
p4563
aa(lp4564
S'01162511+4216257'
p4565
aa(lp4566
S'03050786+2742278'
p4567
aa(lp4568
S'02210181+3652481'
p4569
aS'02210396+3653053'
p4570
aS'02220614+3651466'
p4571
aa(lp4572
S'02220239+3033589'
p4573
aa(lp4574
S'02561395+2359105'
p4575
aa(lp4576
S'03013889+3220498'
p4577
aa(lp4578
S'02573496+2305588'
p4579
aa(lp4580
S'03053562+1934069'
p4581
aa(lp4582
S'03091583+3417307'
p4583
aa(lp4584
S'06255299+5610250'
p4585
aa(lp4586
S'04040615+3042454'
p4587
aa(lp4588
S'10200087+2857131'
p4589
aa(lp4590
S'04495569+7109469'
p4591
aa(lp4592
S'02515204+1850218'
p4593
aa(lp4594
S'05422502+5038414'
p4595
aa(lp4596
S'03345705+2815271'
p4597
aa(lp4598
S'04393348+4132488'
p4599
aa(lp4600
S'04490464+5138412'
p4601
aa(lp4602
S'04450562+4324342'
p4603
aa(lp4604
S'04384168+3934143'
p4605
aa(lp4606
S'08012112+5624042'
p4607
aa(lp4608
S'04170214+1656453'
p4609
aa(lp4610
S'03512982+0943440'
p4611
aa(lp4612
S'04281667+0600130'
p4613
aS'04281665+0600176'
p4614
aa(lp4615
S'03390711+2025267'
p4616
aa(lp4617
S'04054482+3814532'
p4618
aa(lp4619
S'20515101+6521311'
p4620
aa(lp4621
S'04261358+4659454'
p4622
aa(lp4623
S'04204796+1514092'
p4624
aa(lp4625
S'03504003+3005394'
p4626
aa(lp4627
S'04323595+4735356'
p4628
aa(lp4629
S'03583407+3750202'
p4630
aa(lp4631
S'19182339+1839265'
p4632
aa(lp4633
S'03213402+1419143'
p4634
aa(lp4635
S'05295269+3204524'
p4636
aa(lp4637
S'02522210+5725327'
p4638
aa(lp4639
S'02273854+1740206'
p4640
aa(lp4641
S'03553690+2118482'
p4642
aa(lp4643
S'03355099+7140275'
p4644
aa(lp4645
S'04382592+1553158'
p4646
aa(lp4647
S'05430792+4439470'
p4648
aa(lp4649
S'08243096+3900539'
p4650
aS'08243458+3855232'
p4651
aa(lp4652
S'03265471+1947526'
p4653
aa(lp4654
S'02153438+3357418'
p4655
aa(lp4656
S'21312125+5426287'
p4657
aa(lp4658
S'20070775+4231436'
p4659
aa(lp4660
S'04050506+3016295'
p4661
aa(lp4662
S'01365275+5215026'
p4663
aa(lp4664
S'03113048+4311270'
p4665
aa(lp4666
S'03540082+3333323'
p4667
aa(lp4668
S'03315116+0857317'
p4669
aa(lp4670
S'03465952+1524170'
p4671
aa(lp4672
S'04560354+4313556'
p4673
aa(lp4674
S'05010675+1459361'
p4675
aa(lp4676
S'05104796+2410125'
p4677
aa(lp4678
S'17461184+6024225'
p4679
aa(lp4680
S'18091799+2706259'
p4681
aa(lp4682
S'16342543+4750284'
p4683
aa(lp4684
S'01073851+2257218'
p4685
aa(lp4686
S'03272095+2900445'
p4687
aa(lp4688
S'04061752+3145224'
p4689
aa(lp4690
S'04230612+2346027'
p4691
aa(lp4692
S'04275352+1146548'
p4693
aa(lp4694
S'05052561+4552058'
p4695
aa(lp4696
S'01221914+5247348'
p4697
aa(lp4698
S'03341053+2204213'
p4699
aa(lp4700
S'03584495+2422299'
p4701
aa(lp4702
S'20170608+3944588'
p4703
aa(lp4704
S'21193088+4352264'
p4705
aa(lp4706
S'03205595+1805306'
p4707
aa(lp4708
S'04581584+3913156'
p4709
aa(lp4710
S'03115639+2218084'
p4711
aa(lp4712
S'03381862+3828559'
p4713
aa(lp4714
S'03254578+0951591'
p4715
aa(lp4716
S'03355322+1017090'
p4717
aa(lp4718
S'05062489+5247187'
p4719
aa(lp4720
S'04535004+1549156'
p4721
aa(lp4722
S'05015320+2357120'
p4723
aa(lp4724
S'07015525+4417163'
p4725
aa(lp4726
S'05171875+2320177'
p4727
aS'05160907+2305202'
p4728
aa(lp4729
S'05324393+3815313'
p4730
aa(lp4731
S'04225925+2559147'
p4732
aa(lp4733
S'04153447+1935598'
p4734
aa(lp4735
S'17183166+2555054'
p4736
aa(lp4737
S'21211823+7455464'
p4738
aa(lp4739
S'22522567+8137072'
p4740
aa(lp4741
S'16085975+5033390'
p4742
aa(lp4743
S'16213163+3519379'
p4744
aa(lp4745
S'04530747+3420402'
p4746
aa(lp4747
S'03082370+4302085'
p4748
aa(lp4749
S'04360348+4151458'
p4750
aa(lp4751
S'05301783+2956253'
p4752
aa(lp4753
S'03362242+1350477'
p4754
aa(lp4755
S'03533670+3112242'
p4756
aa(lp4757
S'04570322+3331584'
p4758
aa(lp4759
S'03511545+0749387'
p4760
aa(lp4761
S'04013236+4106385'
p4762
aa(lp4763
S'03523432+1115389'
p4764
aa(lp4765
S'04342878+1338542'
p4766
aa(lp4767
S'03580033+2503176'
p4768
aa(lp4769
S'05262362+1003411'
p4770
aa(lp4771
S'05392474+4038437'
p4772
aa(lp4773
S'05435621+4051069'
p4774
aa(lp4775
S'06032957+4748155'
p4776
aa(lp4777
S'06180390+4357073'
p4778
aa(lp4779
S'19412775+3239512'
p4780
aa(lp4781
S'19240212+2951476'
p4782
aa(lp4783
S'18323330+0404205'
p4784
aa(lp4785
S'19201510+2848420'
p4786
aa(lp4787
S'05452421+3032342'
p4788
aa(lp4789
S'06320207+3431132'
p4790
aa(lp4791
S'06115599+3325505'
p4792
aa(lp4793
S'06472751+0524281'
p4794
aa(lp4795
S'06485986+3821170'
p4796
aa(lp4797
S'06213640+3222390'
p4798
aa(lp4799
S'06183480+2503064'
p4800
aa(lp4801
S'05483220+2119180'
p4802
aa(lp4803
S'06414119+2640142'
p4804
aa(lp4805
S'06295663+0934185'
p4806
aa(lp4807
S'06525878+3138599'
p4808
aa(lp4809
S'06034934+3019208'
p4810
aa(lp4811
S'06375540+0858594'
p4812
aa(lp4813
S'06383723+3924128'
p4814
aa(lp4815
S'06171064+0507024'
p4816
aa(lp4817
S'20552266+0950338'
p4818
aa(lp4819
S'20392411+0613412'
p4820
aa(lp4821
S'01253666+0945244'
p4822
aa(lp4823
S'00131578+6919372'
p4824
aa(lp4825
S'03573885+0429439'
p4826
aa(lp4827
S'20074265+1859002'
p4828
aa(lp4829
S'02372971+0021273'
p4830
aa(lp4831
S'18451889+3853248'
p4832
aa(lp4833
S'17105910+7152170'
p4834
aa(lp4835
S'03122509+0021585'
p4836
aa(lp4837
S'02351494+0247534'
p4838
aa(lp4839
S'18583086+2532243'
p4840
aa(lp4841
S'17250512+6935410'
p4842
aa(lp4843
S'18305521+4735598'
p4844
aa(lp4845
S'18333412+2933591'
p4846
aa(lp4847
S'01341058+1257530'
p4848
aa(lp4849
S'17312974+2721233'
p4850
aa(lp4851
S'02100598+7305269'
p4852
aa(lp4853
S'22042147+1505517'
p4854
aa(lp4855
S'21350941+5421540'
p4856
aa(lp4857
S'02130073+1803460'
p4858
aa(lp4859
S'02483544+1916294'
p4860
aa(lp4861
S'03224495+1037247'
p4862
aa(lp4863
S'19020105+4114024'
p4864
aa(lp4865
S'17302224+1912323'
p4866
aa(lp4867
S'19585153+5757122'
p4868
aS'19571326+5752519'
p4869
aa(lp4870
S'23315485+6917170'
p4871
aa(lp4872
S'23242808+1017343'
p4873
aa(lp4874
S'01231508+0257124'
p4875
aa(lp4876
S'02332761+1239538'
p4877
aa(lp4878
S'04233893+1112333'
p4879
aa(lp4880
S'04004377+0600288'
p4881
aa(lp4882
S'04100567+0956248'
p4883
aa(lp4884
S'19133990+0544046'
p4885
aa(lp4886
S'06560887+2211380'
p4887
aa(lp4888
S'07032317+3441509'
p4889
aa(lp4890
S'21585017+0543565'
p4891
aa(lp4892
S'22552485+0332090'
p4893
aa(lp4894
S'05443899+0537265'
p4895
aa(lp4896
S'04543539+0830206'
p4897
aa(lp4898
S'22214075+5921096'
p4899
aa(lp4900
S'04461849+4844518'
p4901
aa(lp4902
S'04485024+0510483'
p4903
aS'04483434+0500533'
p4904
aa(lp4905
S'04291847+1413594'
p4906
aa(lp4907
S'03380713+0634256'
p4908
aa(lp4909
S'06563093+4401567'
p4910
aa(lp4911
S'07320173+5755439'
p4912
aa(lp4913
S'00482970+7518480'
p4914
aa(lp4915
S'01502803+1817466'
p4916
aS'01502896+1818000'
p4917
aa(lp4918
S'02190228+2352550'
p4919
aa(lp4920
S'02231601+2913291'
p4921
aa(lp4922
S'02391735+0728169'
p4923
aa(lp4924
S'03254225+0551519'
p4925
aa(lp4926
S'07093364+0800566'
p4927
aa(lp4928
S'06461949+1304471'
p4929
aa(lp4930
S'07061240+0627399'
p4931
aa(lp4932
S'03142944+0250566'
p4933
aa(lp4934
S'22074847+0539099'
p4935
aa(lp4936
S'08421686+0114526'
p4937
aa(lp4938
S'06562187+0550110'
p4939
aa(lp4940
S'11361611+5624017'
p4941
aa(lp4942
S'23242652+7357437'
p4943
aa(lp4944
S'05153094+5911184'
p4945
aa(lp4946
S'06444751+1628181'
p4947
aS'06433477+1641349'
p4948
aa(lp4949
S'03223165+2858291'
p4950
aa(lp4951
S'04394326+0951467'
p4952
aa(lp4953
S'05422973+0731093'
p4954
aa(lp4955
S'22261576+0300182'
p4956
aS'22261549+0300075'
p4957
aa(lp4958
S'23512449+4204137'
p4959
aa(lp4960
S'20245996+0225569'
p4961
aa(lp4962
S'23500639+2659519'
p4963
aa(lp4964
S'18115228+3225199'
p4965
aS'18115554+3225466'
p4966
aa(lp4967
S'19222248+0454280'
p4968
aa(lp4969
S'18210355+3212426'
p4970
aa(lp4971
S'20020172+0723013'
p4972
aa(lp4973
S'11053346+3213525'
p4974
aa(lp4975
S'17312999+1757338'
p4976
aa(lp4977
S'20484262+1208339'
p4978
aa(lp4979
S'21075543+5943198'
p4980
aa(lp4981
S'21424572+0717038'
p4982
aa(lp4983
S'22484796+4520187'
p4984
aa(lp4985
S'23391057+3057112'
p4986
aa(lp4987
S'22013085+6224408'
p4988
aa(lp4989
S'04522930+0930291'
p4990
aa(lp4991
S'07374384+0554368'
p4992
aa(lp4993
S'16470576+4117062'
p4994
aa(lp4995
S'17571539+7042011'
p4996
aa(lp4997
S'18095137+2128066'
p4998
aa(lp4999
S'19303475+2850538'
p5000
aa(lp5001
S'18384540+7040321'
p5002
aa(lp5003
S'19544358+1801581'
p5004
aa(lp5005
S'17565992+7859473'
p5006
aa(lp5007
S'22310461+2350569'
p5008
aa(lp5009
S'20515794+5922481'
p5010
aa(lp5011
S'19051739+4507161'
p5012
aa(lp5013
S'23071642+1501217'
p5014
aa(lp5015
S'22375236+4936261'
p5016
aa(lp5017
S'22541103+1606546'
p5018
aa(lp5019
S'08140566+1511283'
p5020
aa(lp5021
S'09392335+2943271'
p5022
aa(lp5023
S'21493582+0539068'
p5024
aa(lp5025
S'21160629+2238462'
p5026
aa(lp5027
S'11484727+5305096'
p5028
aa(lp5029
S'18200117+1739138'
p5030
aa(lp5031
S'19233267+2724362'
p5032
aa(lp5033
S'18174719+2639572'
p5034
aa(lp5035
S'18452147+0711584'
p5036
aa(lp5037
S'17495948+2241069'
p5038
aa(lp5039
S'23320131+0052438'
p5040
aa(lp5041
S'01124752+0154395'
p5042
aa(lp5043
S'17140881+6047303'
p5044
aa(lp5045
S'20491376+3216514'
p5046
aa(lp5047
S'02204625+0258375'
p5048
aa(lp5049
S'11223629+3546189'
p5050
aa(lp5051
S'11001604+1757058'
p5052
aa(lp5053
S'12053636+5623456'
p5054
aa(lp5055
S'11095997+2133231'
p5056
aa(lp5057
S'11212951+2531281'
p5058
aa(lp5059
S'12334609+6500050'
p5060
aa(lp5061
S'11210854+2126274'
p5062
aa(lp5063
S'12212942+5408072'
p5064
aa(lp5065
S'12485709+6624231'
p5066
aa(lp5067
S'10520094+0405572'
p5068
aa(lp5069
S'12031768+3852478'
p5070
aa(lp5071
S'10443421+0043150'
p5072
aa(lp5073
S'11134200+1147116'
p5074
aa(lp5075
S'11421839+2301365'
p5076
aS'11422124+2303139'
p5077
aa(lp5078
S'12291427+5333060'
p5079
aS'12291453+5332448'
p5080
aa(lp5081
S'11130059+1025059'
p5082
aa(lp5083
S'12364198+5454268'
p5084
aa(lp5085
S'12305061+5122053'
p5086
aa(lp5087
S'11161124+1125472'
p5088
aa(lp5089
S'11312315+1637146'
p5090
aa(lp5091
S'12344826+5127360'
p5092
aa(lp5093
S'11345670+1817081'
p5094
aa(lp5095
S'11293177+0941136'
p5096
aa(lp5097
S'12534836+5411109'
p5098
aS'12520898+5405318'
p5099
aa(lp5100
S'12454707+5255186'
p5101
aa(lp5102
S'13225126+7422571'
p5103
aa(lp5104
S'11463371+1530431'
p5105
aa(lp5106
S'11472143+1505534'
p5107
aa(lp5108
S'11475245+1742399'
p5109
aa(lp5110
S'11400642+1006445'
p5111
aa(lp5112
S'12265737+2700536'
p5113
aa(lp5114
S'12292712+2259467'
p5115
aa(lp5116
S'12503457+2655230'
p5117
aa(lp5118
S'12433607+2506219'
p5119
aS'12422964+2503423'
p5120
aa(lp5121
S'13065573+4947511'
p5122
aa(lp5123
S'13354014+6051459'
p5124
aa(lp5125
S'12172228+1148217'
p5126
aa(lp5127
S'12250105+2323175'
p5128
aa(lp5129
S'12232063+2529441'
p5130
aa(lp5131
S'12551793+4431260'
p5132
aa(lp5133
S'12394353+2530457'
p5134
aa(lp5135
S'12594090+3558134'
p5136
aa(lp5137
S'13331584+6225380'
p5138
aa(lp5139
S'12404113+1955241'
p5140
aS'12401879+1946118'
p5141
aa(lp5142
S'13142945+4846407'
p5143
aa(lp5144
S'13320007+6636005'
p5145
aa(lp5146
S'13224492+6441334'
p5147
aa(lp5148
S'12512893+2416356'
p5149
aa(lp5150
S'13395455+5348524'
p5151
aa(lp5152
S'13022083+3227103'
p5153
aa(lp5154
S'13155111+4006086'
p5155
aa(lp5156
S'13213814+3959489'
p5157
aa(lp5158
S'13045989+2416375'
p5159
aa(lp5160
S'12383621+0521384'
p5161
aa(lp5162
S'12340501+1345458'
p5163
aa(lp5164
S'13353311+3014208'
p5165
aa(lp5166
S'12282993+0938226'
p5167
aa(lp5168
S'13183907+2349207'
p5169
aa(lp5170
S'13185441+2250053'
p5171
aa(lp5172
S'13374043+4807542'
p5173
aS'13375120+4808174'
p5174
aa(lp5175
S'12595013+1610331'
p5176
aa(lp5177
S'12294530+0752379'
p5178
aa(lp5179
S'13564148+4342587'
p5180
aa(lp5181
S'14022347+4300591'
p5182
aa(lp5183
S'14303787+5943249'
p5184
aa(lp5185
S'13014449+2620304'
p5186
aa(lp5187
S'13531086+5528329'
p5188
aa(lp5189
S'13324830+4240274'
p5190
aa(lp5191
S'12384789+0958041'
p5192
aa(lp5193
S'13401891+4712296'
p5194
aa(lp5195
S'13053667+1934566'
p5196
aa(lp5197
S'12355134+0645255'
p5198
aa(lp5199
S'13451104+2852012'
p5200
aa(lp5201
S'14332569+5633341'
p5202
aa(lp5203
S'13412775+3227219'
p5204
aa(lp5205
S'14213789+5627180'
p5206
aa(lp5207
S'14281839+6349009'
p5208
aa(lp5209
S'14180798+4939510'
p5210
aa(lp5211
S'13382714+2827313'
p5212
aa(lp5213
S'13370954+2644335'
p5214
aS'13360622+2647346'
p5215
aa(lp5216
S'12460027+1834578'
p5217
aa(lp5218
S'14074802+5711452'
p5219
aa(lp5220
S'13460932+3108396'
p5221
aS'13461659+3109244'
p5222
aa(lp5223
S'13455527+2723131'
p5224
aa(lp5225
S'14203946+4602342'
p5226
aa(lp5227
S'14230252+5146303'
p5228
aa(lp5229
S'12434758+0003203'
p5230
aa(lp5231
S'14174125+4327522'
p5232
aa(lp5233
S'13384003+2303574'
p5234
aa(lp5235
S'13353006+2042303'
p5236
aa(lp5237
S'13344934+2011387'
p5238
aa(lp5239
S'13000747+3038560'
p5240
aa(lp5241
S'12184716+2944488'
p5242
aa(lp5243
S'14171954+4124239'
p5244
aa(lp5245
S'13584500+3140179'
p5246
aa(lp5247
S'14351526+5023415'
p5248
aa(lp5249
S'14032232+3007547'
p5250
aS'14024416+3007461'
p5251
aa(lp5252
S'13343293+1412167'
p5253
aa(lp5254
S'13371941+1532173'
p5255
aa(lp5256
S'13292131+1126264'
p5257
aS'13290989+1118372'
p5258
aa(lp5259
S'14065146+3133473'
p5260
aa(lp5261
S'14283182+4554326'
p5262
aa(lp5263
S'13391591+0922369'
p5264
aa(lp5265
S'14362895+3922352'
p5266
aa(lp5267
S'14435452+4335470'
p5268
aa(lp5269
S'15175567+5553269'
p5270
aa(lp5271
S'15163731+5355457'
p5272
aa(lp5273
S'14222031+3540567'
p5274
aa(lp5275
S'14203649+3130045'
p5276
aa(lp5277
S'13251057+0353527'
p5278
aa(lp5279
S'14361247+3114349'
p5280
aa(lp5281
S'14394991+4201188'
p5282
aa(lp5283
S'14545496+4108480'
p5284
aa(lp5285
S'13373320+0834545'
p5286
aa(lp5287
S'13582069+1100496'
p5288
aa(lp5289
S'13433878+0825436'
p5290
aa(lp5291
S'13570124+0830060'
p5292
aa(lp5293
S'15210103+5053230'
p5294
aa(lp5295
S'14511760+3337466'
p5296
aa(lp5297
S'13461853+0713382'
p5298
aa(lp5299
S'14412571+2839269'
p5300
aa(lp5301
S'14592508+3618321'
p5302
aa(lp5303
S'14252416+2131506'
p5304
aa(lp5305
S'14542520+1102158'
p5306
aa(lp5307
S'14565021+1245060'
p5308
aa(lp5309
S'15034161+3152125'
p5310
aa(lp5311
S'14385800+1327388'
p5312
aa(lp5313
S'14265760+1317282'
p5314
aa(lp5315
S'15164073+3910486'
p5316
aa(lp5317
S'14313039+1717579'
p5318
aa(lp5319
S'15090689+3254449'
p5320
aa(lp5321
S'14154574+0625058'
p5322
aa(lp5323
S'14194304+0758254'
p5324
aa(lp5325
S'15234442+1759089'
p5326
aa(lp5327
S'13503579+0330379'
p5328
aa(lp5329
S'15485019+3334350'
p5330
aa(lp5331
S'14572055+1458545'
p5332
aa(lp5333
S'15421140+2447058'
p5334
aa(lp5335
S'14512912+0856423'
p5336
aa(lp5337
S'14305866+0925521'
p5338
aa(lp5339
S'15192126+3403431'
p5340
aa(lp5341
S'14333985+0920094'
p5342
aa(lp5343
S'15233265+2203268'
p5344
aa(lp5345
S'15193634+1828405'
p5346
aa(lp5347
S'15434848+2552376'
p5348
aa(lp5349
S'15353572+2912577'
p5350
aa(lp5351
S'15242475+2925318'
p5352
aa(lp5353
S'14531363+0553578'
p5354
aa(lp5355
S'15472743+4507512'
p5356
aa(lp5357
S'15212687+1915583'
p5358
aa(lp5359
S'15561885+2347243'
p5360
aa(lp5361
S'16120259+3158476'
p5362
aS'16120327+3158454'
p5363
aa(lp5364
S'14095169+0724258'
p5365
aa(lp5366
S'15270892+1427386'
p5367
aa(lp5368
S'14420474+0155127'
p5369
aa(lp5370
S'15335062+2510106'
p5371
aa(lp5372
S'16022326+3310168'
p5373
aa(lp5374
S'15592924+2321387'
p5375
aa(lp5376
S'15505147+1825385'
p5377
aa(lp5378
S'15323376+0912521'
p5379
aa(lp5380
S'16002476+1946290'
p5381
aa(lp5382
S'15525655+1356282'
p5383
aa(lp5384
S'16212520+2443209'
p5385
aa(lp5386
S'16191059+1957259'
p5387
aa(lp5388
S'15575373+1441071'
p5389
aa(lp5390
S'15574826+0901099'
p5391
aa(lp5392
S'16072820+0557594'
p5393
aa(lp5394
S'16100230+0604465'
p5395
aa(lp5396
S'13413291+0805048'
p5397
aa(lp5398
S'16144378+0452085'
p5399
aa(lp5400
S'16144001+0049464'
p5401
aa(lp5402
S'16490075+0838331'
p5403
aa(lp5404
S'16403235+0551447'
p5405
aa(lp5406
S'16112810+0704000'
p5407
aa(lp5408
S'17010211+0812264'
p5409
aa(lp5410
S'17095274+1155341'
p5411
aa(lp5412
S'17013354+0709483'
p5413
aa(lp5414
S'15204853+2453477'
p5415
aa(lp5416
S'15554854+0319237'
p5417
aa(lp5418
S'11474440+0048164'
p5419
aatp5420
.